
CH32V208WBU6_TMOS.elf:     file format elf32-littleriscv
CH32V208WBU6_TMOS.elf
architecture: riscv:rv32, flags 0x00000112:
EXEC_P, HAS_SYMS, D_PAGED
start address 0x00000000

Program Header:
    LOAD off    0x00001000 vaddr 0x00000000 paddr 0x00000000 align 2**12
         filesz 0x00005f04 memsz 0x00005f04 flags r-x
    LOAD off    0x00007000 vaddr 0x20000000 paddr 0x00005f04 align 2**12
         filesz 0x00000080 memsz 0x00001edc flags rw-

Sections:
Idx Name          Size      VMA       LMA       File off  Algn
  0 .init         00000038  00000000  00000000  00001000  2**1
                  CONTENTS, ALLOC, LOAD, READONLY, CODE
  1 .vector       00000148  00000038  00000038  00001038  2**1
                  CONTENTS, ALLOC, LOAD, READONLY, CODE
  2 .highcode     00000f2c  00000180  00000180  00001180  2**1
                  CONTENTS, ALLOC, LOAD, READONLY, CODE
  3 .text         00004e58  000010ac  000010ac  000020ac  2**2
                  CONTENTS, ALLOC, LOAD, READONLY, CODE
  4 .fini         00000000  00005f04  00005f04  00007080  2**0
                  CONTENTS, ALLOC, LOAD, CODE
  5 .dalign       00000000  20000000  20000000  00007080  2**0
                  CONTENTS
  6 .dlalign      00000000  00005f04  00005f04  00007080  2**0
                  CONTENTS
  7 .data         00000080  20000000  00005f04  00007000  2**2
                  CONTENTS, ALLOC, LOAD, DATA
  8 .bss          00001e5c  20000080  00005f84  00007080  2**3
                  ALLOC
  9 .stack        00000000  20010000  20010000  00007080  2**0
                  CONTENTS
 10 .debug_line   0000b3a2  00000000  00000000  00007080  2**0
                  CONTENTS, READONLY, DEBUGGING
 11 .debug_info   0000e750  00000000  00000000  00012422  2**0
                  CONTENTS, READONLY, DEBUGGING
 12 .debug_abbrev 00002b5f  00000000  00000000  00020b72  2**0
                  CONTENTS, READONLY, DEBUGGING
 13 .debug_aranges 000007f8  00000000  00000000  000236d8  2**3
                  CONTENTS, READONLY, DEBUGGING
 14 .debug_str    00002d07  00000000  00000000  00023ed0  2**0
                  CONTENTS, READONLY, DEBUGGING
 15 .debug_ranges 00000790  00000000  00000000  00026bd8  2**3
                  CONTENTS, READONLY, DEBUGGING
 16 .debug_loc    00003493  00000000  00000000  00027368  2**0
                  CONTENTS, READONLY, DEBUGGING
 17 .comment      00000033  00000000  00000000  0002a7fb  2**0
                  CONTENTS, READONLY
 18 .debug_frame  00001a64  00000000  00000000  0002a830  2**2
                  CONTENTS, READONLY, DEBUGGING
 19 .stab         00000084  00000000  00000000  0002c294  2**2
                  CONTENTS, READONLY, DEBUGGING
 20 .stabstr      00000117  00000000  00000000  0002c318  2**0
                  CONTENTS, READONLY, DEBUGGING
SYMBOL TABLE:
00000000 l    d  .init	00000000 .init
00000038 l    d  .vector	00000000 .vector
00000180 l    d  .highcode	00000000 .highcode
000010ac l    d  .text	00000000 .text
00005f04 l    d  .fini	00000000 .fini
20000000 l    d  .dalign	00000000 .dalign
00005f04 l    d  .dlalign	00000000 .dlalign
20000000 l    d  .data	00000000 .data
20000080 l    d  .bss	00000000 .bss
20010000 l    d  .stack	00000000 .stack
00000000 l    d  .debug_line	00000000 .debug_line
00000000 l    d  .debug_info	00000000 .debug_info
00000000 l    d  .debug_abbrev	00000000 .debug_abbrev
00000000 l    d  .debug_aranges	00000000 .debug_aranges
00000000 l    d  .debug_str	00000000 .debug_str
00000000 l    d  .debug_ranges	00000000 .debug_ranges
00000000 l    d  .debug_loc	00000000 .debug_loc
00000000 l    d  .comment	00000000 .comment
00000000 l    d  .debug_frame	00000000 .debug_frame
00000000 l    d  .stab	00000000 .stab
00000000 l    d  .stabstr	00000000 .stabstr
00000000 l    df *ABS*	00000000 ./SRC/Startup/startup_ch32v20x_D8W.o
00000038 l       .vector	00000000 _vector_base
00000000 l    df *ABS*	00000000 peripheral_main.c
00000000 l    df *ABS*	00000000 message.c
00000000 l    df *ABS*	00000000 tmos.c
00000216 l     F .highcode	00000020 tmosFindTask
00000000 l    df *ABS*	00000000 tmos_hw.c
0000069e l     F .highcode	00000032 clockGetHSEValue
00002814 l     F .text	00000074 clockGetTickValve
00000000 l    df *ABS*	00000000 bb.c
00000000 l    df *ABS*	00000000 ip.c
00000000 l    df *ABS*	00000000 lle.c
00000000 l    df *ABS*	00000000 rf_fh.c
00000000 l    df *ABS*	00000000 rfend.c
00000000 l    df *ABS*	00000000 memory.c
00000000 l    df *ABS*	00000000 ch32v20x_adc.c
00000000 l    df *ABS*	00000000 ch32v20x_exti.c
00000000 l    df *ABS*	00000000 ch32v20x_flash.c
00000000 l    df *ABS*	00000000 ch32v20x_gpio.c
00000000 l    df *ABS*	00000000 ch32v20x_pwr.c
00000000 l    df *ABS*	00000000 ch32v20x_rcc.c
20000000 l     O .data	00000010 APBAHBPrescTable
20000070 l     O .data	00000004 ADCPrescTable
00000000 l    df *ABS*	00000000 ch32v20x_rtc.c
00000000 l    df *ABS*	00000000 ch32v20x_usart.c
00000000 l    df *ABS*	00000000 debug.c
20000080 l     O .bss	00000002 p_ms
20000082 l     O .bss	00000001 p_us
20000074 l     O .data	00000004 curbrk.4642
00000000 l    df *ABS*	00000000 MCU.c
00000000 l    df *ABS*	00000000 RTC.c
00000000 l    df *ABS*	00000000 ch32v20x_it.c
00000000 l    df *ABS*	00000000 system_ch32v20x.c
00000000 l    df *ABS*	00000000 tmos_snv.c
00000000 l    df *ABS*	00000000 ll_connect.c
00000000 l    df *ABS*	00000000 ll_scan.c
00000000 l    df *ABS*	00000000 ll_initiate.c
00000000 l    df *ABS*	00000000 libgcc2.c
00000000 l    df *ABS*	00000000 printf.c
00000000 l    df *ABS*	00000000 puts.c
00000000 l    df *ABS*	00000000 wbuf.c
00000000 l    df *ABS*	00000000 wsetup.c
00000000 l    df *ABS*	00000000 fflush.c
00000000 l    df *ABS*	00000000 findfp.c
00004f5c l     F .text	00000066 std
00000000 l    df *ABS*	00000000 fwalk.c
00000000 l    df *ABS*	00000000 makebuf.c
00000000 l    df *ABS*	00000000 nano-mallocr.c
00000000 l    df *ABS*	00000000 nano-mallocr.c
00000000 l    df *ABS*	00000000 nano-vfprintf.c
000053ea l     F .text	00000028 __sfputc_r
00000000 l    df *ABS*	00000000 nano-vfprintf_i.c
00000000 l    df *ABS*	00000000 sbrkr.c
00000000 l    df *ABS*	00000000 stdio.c
00000000 l    df *ABS*	00000000 writer.c
00000000 l    df *ABS*	00000000 closer.c
00000000 l    df *ABS*	00000000 fstatr.c
00000000 l    df *ABS*	00000000 isattyr.c
00000000 l    df *ABS*	00000000 lseekr.c
00000000 l    df *ABS*	00000000 memchr.c
00000000 l    df *ABS*	00000000 mlock.c
00000000 l    df *ABS*	00000000 readr.c
00000000 l    df *ABS*	00000000 close.c
00000000 l    df *ABS*	00000000 fstat.c
00000000 l    df *ABS*	00000000 isatty.c
00000000 l    df *ABS*	00000000 lseek.c
00000000 l    df *ABS*	00000000 read.c
00000000 l    df *ABS*	00000000 libgcc2.c
00000000 l    df *ABS*	00000000 impure.c
20000010 l     O .data	00000060 impure_data
00000000 l    df *ABS*	00000000 reent.c
20001da0 g     O .bss	00000001 nGA2440
000010ca  w      .text	00000000 EXTI2_IRQHandler
000007b4 g     F .highcode	00000038 ll_rx_wait_finish
00005bf8 g     F .text	00000030 _isatty_r
00004b32 g     F .text	000000d4 _puts_r
00005c28 g     F .text	00000034 _lseek_r
000004c8 g     F .highcode	000001d6 TMOS_SystemProcess
000034c2 g     F .text	00000034 RFEND_Reset
20001da4 g     O .bss	00000004 ftuneFlag
00004af2 g     F .text	00000040 printf
20000870 g       .data	00000000 __global_pointer$
000049f2 g     F .text	00000028 .hidden __riscv_save_8
000010f0  w      .text	00000000 TIM1_CC_IRQHandler
00005b2a g     F .text	00000030 __sseek
00005012 g     F .text	0000006a __sinit
00004c10 g     F .text	000000bc __swbuf_r
00002144 g     F .text	00000002 HardFault_Handler
00001712 g     F .text	00000012 RTC_EnterConfigMode
00004fcc g     F .text	00000046 __sfmoreglue
00005c76 g     F .text	00000002 __malloc_unlock
000017d4 g     F .text	00000014 RTC_ClearFlag
00001ef2 g     F .text	00000072 HAL_ProcessEvent
00004a3e g     F .text	0000000c .hidden __riscv_restore_3
20001d3c g     O .bss	00000004 gptrBBReg
00002690 g     F .text	0000003c TMOS_ProcessEventRegister
000010b6  w      .text	00000000 SysTick_Handler
000010bc  w      .text	00000000 PVD_IRQHandler
00004a2a g     F .text	00000020 .hidden __riscv_restore_10
00002140 g     F .text	00000004 NMI_Handler
000010cc  w      .text	00000000 EXTI3_IRQHandler
000049f2 g     F .text	00000028 .hidden __riscv_save_11
00000320 g     F .highcode	00000012 tmos_memset
000003de g     F .highcode	000000ea tmos_proces_system_time
0000173c g     F .text	00000036 RTC_GetCounter
000013de g     F .text	00000064 FLASH_ProgramPage_Fast
00000870 g     F .highcode	00000100 ll_tx_wait_finish
00001ca4 g     F .text	0000000a USART_GetFlagStatus
00002c88 g     F .text	00000096 BB_DevInit
00005bc6 g     F .text	00000032 _fstat_r
00000332 g     F .highcode	00000014 tmos_strlen
000007ec g     F .highcode	00000084 ble_ll_chkcrc
000003bc g     F .highcode	00000022 tmos_isbufset
20001ed8 g     O .bss	00000004 errno
20000080 g       .bss	00000000 _sbss
00000800 g       *ABS*	00000000 __stack_size
0000134e g     F .text	0000000a ADC_GetFlagStatus
00001d0a g     F .text	00000054 USART_Printf_Init
20000084 g     O .bss	00000004 RTCTigFlag
00005d4c g     O .text	00000017 VER_LIB
00002910 g     F .text	000000b4 tmos_snv_init
00004a3e g     F .text	0000000c .hidden __riscv_restore_2
20001c98 g     O .bss	00000028 gTmosPara
00001246 g     F .text	00000010 ADC_Cmd
00004fc2 g     F .text	0000000a _cleanup_r
000010c6  w      .text	00000000 EXTI0_IRQHandler
000010fc  w      .text	00000000 I2C2_EV_IRQHandler
00004c06 g     F .text	0000000a puts
20000078 g     O .data	00000004 SystemCoreClock
20001db4 g     O .bss	00000004 MemCtlEnd
00005cbc g     F .text	00000010 _fstat
00000038 g       .init	00000000 _einit
20001cc0 g     O .bss	00000004 tasksArr
20001db8 g     O .bss	00000004 MemCtlPartition
00001388 g     F .text	0000001e FLASH_Unlock_Fast
000016b8 g     F .text	0000001e RCC_APB2PeriphClockCmd
000049ea g     F .text	00000030 .hidden __riscv_save_12
000006d2 g     F .highcode	000000e2 BB_IRQLibHandler
00000b50 g     F .highcode	000001ec LLE_IRQLibHandler
20001cc4 g     O .bss	0000001c pfnProcessCBs
000010de  w      .text	00000000 ADC1_2_IRQHandler
00002146 g     F .text	00000008 BB_IRQHandler
00001468 g     F .text	000000c0 GPIO_Init
0000153e g     F .text	00000012 RCC_ADCCLKConfig
00004444 g     F .text	00000014 RFEND_TXFtune
000010b4  w      .text	00000000 Break_Point_Handler
0000366a g     F .text	00000080 RFEND_RXFilter
00004a2a g     F .text	00000020 .hidden __riscv_restore_11
00001de6 g     F .text	0000002e Lib_Write_Flash
00001100  w      .text	00000000 SPI1_IRQHandler
00001c86 g     F .text	00000016 USART_Cmd
00005a84 g     F .text	00000032 _sbrk_r
00004a1a g     F .text	0000000c .hidden __riscv_save_1
000010be  w      .text	00000000 TAMPER_IRQHandler
00004a3e g     F .text	0000000c .hidden __riscv_restore_0
00000ed4 g     F .highcode	000000c8 tmos_memory_allocate
20001ce0 g     O .bss	00000002 eventsClear
00005c78 g     F .text	00000034 _read_r
00001550 g     F .text	00000028 RCC_LSEConfig
00004a00 g     F .text	0000001a .hidden __riscv_save_7
00001598 g     F .text	00000020 RCC_RTCCLKCmd
00001124  w      .text	00000000 OSCWakeUp_IRQHandler
000003a2 g     F .highcode	0000001a tmos_revmemcpy
000022a0 g     F .text	00000086 TMOS_CB_PeriodicProcessEvent
000016d6 g     F .text	0000001e RCC_APB1PeriphClockCmd
000010b0  w      .text	00000000 Ecall_M_Mode_Handler
00002f7a g     F .text	0000009c ll_multi_states_process
20010000 g       .stack	00000000 _heap_end
00005ccc g     F .text	00000010 _isatty
00001cd4 g     F .text	00000036 Delay_Us
00005f00 g     O .text	00000004 _global_impure_ptr
00002b2e g     F .text	0000015a LL_ScanSetRF
00004a34 g     F .text	00000016 .hidden __riscv_restore_5
0000169a g     F .text	0000001e RCC_AHBPeriphClockCmd
00004658 g     F .text	00000392 .hidden __udivdi3
000010d6  w      .text	00000000 DMA1_Channel4_IRQHandler
0000126e g     F .text	000000b8 ADC_RegularChannelConfig
000029c4 g     F .text	0000016a LL_GetNextConnectEventTime
00000d3c g     F .highcode	00000080 RF_HopGetChannel
00001d98 g     F .text	0000002a _sbrk
20000083 g     O .bss	00000001 halTaskID
00001326 g     F .text	00000008 ADC_GetConversionValue
00000180 g     F .highcode	00000008 Main_Circulation
20001d34 g     O .bss	00000004 fnGetClockCBs
000026cc g     F .text	00000148 BLE_LibInit
0000315a g     F .text	00000040 LLE_DevInit
00002d1e g     F .text	00000132 BLE_SetPHYTxMode
20001dbc g     O .bss	00000004 MemCtlStart
00000ea4 g     F .highcode	00000030 RFEND_WaitTune
0000179a g     F .text	0000002a RTC_SetPrescaler
000023a8 g     F .text	0000002a tmos_set_event
0000137a g     F .text	0000000e FLASH_Lock
00004a34 g     F .text	00000016 .hidden __riscv_restore_6
00001108  w      .text	00000000 USART3_IRQHandler
00001370 g     F .text	0000000a EXTI_ClearITPendingBit
00001528 g     F .text	00000016 PWR_BackupAccessCmd
000010c0  w      .text	00000000 RTC_IRQHandler
20001edc g       .bss	00000000 _ebss
000044f4 g     F .text	00000164 LL_InitiateSetRF
000010dc  w      .text	00000000 DMA1_Channel7_IRQHandler
00001256 g     F .text	00000018 ADC_SoftwareStartConvCmd
000010e4  w      .text	00000000 CAN1_RX1_IRQHandler
00001cae g     F .text	00000026 Delay_Init
00001442 g     F .text	00000026 FLASH_GetMACAddress
00002f46 g     F .text	00000034 ll_multi_states_check
00002092 g     F .text	00000032 HAL_Init
00003016 g     F .text	0000008a ble_ll_hw_api_shut
00000970 g     F .highcode	000001e0 BLE_CheckHoppingMap
000010f6  w      .text	00000000 TIM4_IRQHandler
20001da8 g     O .bss	00000001 nGA2480
20001d38 g     O .bss	00000004 gptrAESReg
000049f2 g     F .text	00000028 .hidden __riscv_save_9
00001772 g     F .text	00000028 RTC_SetCounter
000034f6 g     F .text	00000174 RFEND_DevInit
00005e64 g     O .text	00000020 __sf_fake_stderr
00004a00 g     F .text	0000001a .hidden __riscv_save_4
000010f8  w      .text	00000000 I2C1_EV_IRQHandler
20001c94 g     O .bss	00000004 msg_qHead
00002e50 g     F .text	000000f6 BLE_SetPHYRxMode
00001110  w      .text	00000000 USBHD_IRQHandler
00001f64 g     F .text	0000012e WCHBLE_Init
000015b8 g     F .text	000000e2 RCC_GetClocksFreq
000010da  w      .text	00000000 DMA1_Channel6_IRQHandler
00005412 g     F .text	00000040 __sfputs_r
20000089 g     O .bss	00000001 nCO2401
20001d40 g     O .bss	00000004 gPaControl
0000111e  w      .text	00000000 UART4_IRQHandler
00005c5c g     F .text	00000018 memchr
00001bcc g     F .text	000000ba USART_Init
0000526e g     F .text	000000a8 _free_r
000010f4  w      .text	00000000 TIM3_IRQHandler
000010c4  w      .text	00000000 RCC_IRQHandler
00004a1a g     F .text	0000000c .hidden __riscv_save_3
000010ee  w      .text	00000000 TIM1_TRG_COM_IRQHandler
000010d0  w      .text	00000000 DMA1_Channel1_IRQHandler
00000000 g       .init	00000000 _start
000032d2 g     F .text	000001f0 RF_Rx
00005cdc g     F .text	00000010 _lseek
0000158c g     F .text	0000000c RCC_RTCCLKConfig
0000110a  w      .text	00000000 EXTI15_10_IRQHandler
00000346 g     F .highcode	00000032 tmos_memdup
00001120  w      .text	00000000 DMA1_Channel8_IRQHandler
20001ce4 g     O .bss	00000004 EventsArr
000013b0 g     F .text	0000002e FLASH_ErasePage_Fast
00005b96 g     F .text	00000030 _close_r
20000000 g       .dalign	00000000 _data_vma
0000111c  w      .text	00000000 TIM5_IRQHandler
20001dac g     O .bss	00000004 gptrRFENDReg
20000088 g     O .bss	00000001 l2capNumRecvDataPkts
20001dc0 g     O .bss	00000118 gBleLlPara
00004ccc g     F .text	000000fc __swsetup_r
000010e8  w      .text	00000000 EXTI9_5_IRQHandler
0000507c g     F .text	000000a0 __sfp
000006d0 g     F .highcode	00000002 TMOS_TimerIRQHandler
000049f2 g     F .text	00000028 .hidden __riscv_save_10
00005ab6 g     F .text	0000002c __sread
00005c74 g     F .text	00000002 __malloc_lock
00000dbc g     F .highcode	00000072 RF_FrequencyHoppingGet
00004a34 g     F .text	00000016 .hidden __riscv_restore_4
00004a2a g     F .text	00000020 .hidden __riscv_restore_8
20000094 g     O .bss	00001c00 MEM_BUF
20001d64 g     O .bss	00000020 rfConfig
00004ef8 g     F .text	00000064 _fflush_r
00004458 g     F .text	00000028 tmos_memory_getlen
00004a00 g     F .text	0000001a .hidden __riscv_save_6
00001102  w      .text	00000000 SPI2_IRQHandler
00005e84 g     O .text	00000020 __sf_fake_stdin
00000378 g     F .highcode	0000002a tmos_memcmp
00001122  w      .text	00000000 OSC32KCal_IRQHandler
00004a4a g     F .text	000000a8 memset
00004a2a g     F .text	00000020 .hidden __riscv_restore_9
00004a34 g     F .text	00000016 .hidden __riscv_restore_7
20001d60 g     O .bss	00000004 gptrLLEReg
00002156 g     F .text	00000020 main
00002326 g     F .text	00000082 TMOS_CB_ProcessEvent
00000e2e g     F .highcode	00000076 RF_FrequencyHoppingChange
00005b5a g     F .text	00000006 __sclose
00005316 g     F .text	000000d4 _malloc_r
00000f9c g     F .highcode	000000d2 tmos_memory_free
000030a0 g     F .text	000000ba BLE_RegInit
00002574 g     F .text	0000011c TMOS_Init
00002400 g     F .text	00000106 tmos_start_task
000010d8  w      .text	00000000 DMA1_Channel5_IRQHandler
000010ce  w      .text	00000000 EXTI4_IRQHandler
000010e2  w      .text	00000000 USB_LP_CAN1_RX0_IRQHandler
00001358 g     F .text	00000018 ADC_BufferCmd
000020c4 g     F .text	0000005c HAL_TimeInit
00002176 g     F .text	000000f8 SystemInit
00004af2 g     F .text	00000040 iprintf
00002506 g     F .text	00000050 tmos_stop_task
000010e0  w      .text	00000000 USB_HP_CAN1_TX_IRQHandler
00005d64 g     O .text	00000100 .hidden __clz_tab
0000214e g     F .text	00000008 LLE_IRQHandler
00000000 g       .init	00000000 _sinit
00001112  w      .text	00000000 USBHDWakeUp_IRQHandler
00005b60 g     F .text	00000036 _write_r
000010d4  w      .text	00000000 DMA1_Channel3_IRQHandler
20001ce8 g     O .bss	00000004 taskHead
00001114  w      .text	00000000 ETH_IRQHandler
000056d8 g     F .text	0000010c _printf_common
2000007c g     O .data	00000004 _impure_ptr
000010ec  w      .text	00000000 TIM1_UP_IRQHandler
00004dc8 g     F .text	00000130 __sflush_r
00004480 g     F .text	00000074 tmos_memory_init
000036ea g     F .text	0000003a RFEND_RXAdc
000010ba  w      .text	00000000 WWDG_IRQHandler
000010b2  w      .text	00000000 Ecall_U_Mode_Handler
00001dc2 g     F .text	0000000c Lib_Calibration_LSI
000010f2  w      .text	00000000 TIM2_IRQHandler
20010000 g       .stack	00000000 _eusrstack
00004a1a g     F .text	0000000c .hidden __riscv_save_2
000010b8  w      .text	00000000 SW_Handler
00000308 g     F .highcode	00000018 tmos_memcpy_word
00000188 g     F .highcode	0000001a tmos_msg_enqueue
000011b0 g     F .text	00000040 ADC_DeInit
20001cec g     O .bss	00000040 ble
000013a6 g     F .text	0000000a FLASH_Lock_Fast
000010ea  w      .text	00000000 TIM1_BRK_IRQHandler
00005186 g     F .text	00000058 __swhatbuf_r
000011f0 g     F .text	00000056 ADC_Init
00001c9c g     F .text	00000008 USART_SendData
20001db0 g     O .bss	00000001 nCO2440
000010c8  w      .text	00000000 EXTI1_IRQHandler
000017c4 g     F .text	00000010 RTC_WaitForLastTask
00004a00 g     F .text	0000001a .hidden __riscv_save_5
2000008a g     O .bss	00000001 nGA2401
00001d5e g     F .text	0000003a _write
0000132e g     F .text	00000020 ADC_TempSensorVrefintCmd
20000080 g       .data	00000000 _edata
20001edc g       .bss	00000000 _end
0000226e g     F .text	00000028 tmos_msg_deallocate
00002120 g     F .text	00000020 RTCAlarm_IRQHandler
20001d2c g     O .bss	00000004 cbTimersHead
00005f04 g       .dlalign	00000000 _data_lma
000023d2 g     F .text	0000002e tmos_clear_event
00001e14 g     F .text	000000de HAL_GetInterTempValue
00001106  w      .text	00000000 USART2_IRQHandler
00005ae2 g     F .text	00000048 __swrite
00001724 g     F .text	00000018 RTC_ExitConfigMode
00005452 g     F .text	00000286 _vfiprintf_r
0000106e g     F .highcode	0000003c tmos_bm_adjust_header
00001116  w      .text	00000000 ETHWakeUp_IRQHandler
0000511c g     F .text	0000006a _fwalk_reent
00001dce g     F .text	00000018 Lib_Read_Flash
000017e8 g     F .text	0000000a RTC_ClearITPendingBit
000002ec g     F .highcode	0000001c tmos_memcpy
20001d44 g     O .bss	0000001c gBleIPPara
000010fe  w      .text	00000000 I2C2_ER_IRQHandler
000010d2  w      .text	00000000 DMA1_Channel2_IRQHandler
00005ea4 g     O .text	00000020 __sf_fake_stdout
00004a26 g     F .text	00000024 .hidden __riscv_restore_12
00005cec g     F .text	00000010 _read
00001126  w      .text	00000000 handle_reset
000010e6  w      .text	00000000 CAN1_SCE_IRQHandler
00004a1a g     F .text	0000000c .hidden __riscv_save_0
000010c2  w      .text	00000000 FLASH_IRQHandler
00000236 g     F .highcode	000000b6 tmos_proces_sleep
00003724 g     F .text	00000d20 RFEND_TXCtune
00001104  w      .text	00000000 USART1_IRQHandler
000051de g     F .text	00000090 __smakebuf_r
00001578 g     F .text	00000014 RCC_LSICmd
000057e4 g     F .text	000002a0 _printf_i
20000090 g     O .bss	00000004 __malloc_sbrk_start
000016f4 g     F .text	0000001e RCC_APB2PeriphResetCmd
000010fa  w      .text	00000000 I2C1_ER_IRQHandler
000001a2 g     F .highcode	00000074 tmos_msg_receive
20001d84 g     O .bss	0000001c rfInfo
00002556 g     F .text	0000001e TMOS_TimerRegister
2000008c g     O .bss	00000004 __malloc_free_list
00004a3e g     F .text	0000000c .hidden __riscv_restore_1
00005452 g     F .text	00000286 _vfprintf_r
20001db1 g     O .bss	00000001 nCO2480
00002888 g     F .text	00000088 TMOS_TimerInit
000017f2 g     F .text	000003da Calibration_LSI
20001d30 g     O .bss	00000004 pfnTimerCBs
00002296 g     F .text	0000000a tmos_msg_init
0000319a g     F .text	00000138 RF_DevSetChannel
0000110e  w      .text	00000000 USBWakeUp_IRQHandler
00005cac g     F .text	00000010 _close



Disassembly of section .init:

00000000 <_sinit>:
   0:	1260106f          	j	1126 <handle_reset>
   4:	00000013          	nop
   8:	00000013          	nop
   c:	00000013          	nop
  10:	00000013          	nop
  14:	00000013          	nop
  18:	00000013          	nop
  1c:	00000013          	nop
  20:	00000013          	nop
  24:	00000013          	nop
  28:	00000013          	nop
  2c:	00000013          	nop
  30:	00000013          	nop
  34:	00100073          	ebreak

Disassembly of section .vector:

00000038 <_vector_base>:
	...
  40:	2140                	lbu	s0,4(a0)
  42:	0000                	unimp
  44:	2144                	lbu	s1,4(a0)
  46:	0000                	unimp
  48:	0000                	unimp
  4a:	0000                	unimp
  4c:	10b0                	addi	a2,sp,104
	...
  56:	0000                	unimp
  58:	10b2                	slli	ra,ra,0x2c
  5a:	0000                	unimp
  5c:	10b4                	addi	a3,sp,104
	...
  66:	0000                	unimp
  68:	10b6                	slli	ra,ra,0x2d
  6a:	0000                	unimp
  6c:	0000                	unimp
  6e:	0000                	unimp
  70:	10b8                	addi	a4,sp,104
  72:	0000                	unimp
  74:	0000                	unimp
  76:	0000                	unimp
  78:	10ba                	slli	ra,ra,0x2e
  7a:	0000                	unimp
  7c:	10bc                	addi	a5,sp,104
  7e:	0000                	unimp
  80:	10be                	slli	ra,ra,0x2f
  82:	0000                	unimp
  84:	10c0                	addi	s0,sp,100
  86:	0000                	unimp
  88:	10c2                	slli	ra,ra,0x30
  8a:	0000                	unimp
  8c:	10c4                	addi	s1,sp,100
  8e:	0000                	unimp
  90:	10c6                	slli	ra,ra,0x31
  92:	0000                	unimp
  94:	10c8                	addi	a0,sp,100
  96:	0000                	unimp
  98:	10ca                	slli	ra,ra,0x32
  9a:	0000                	unimp
  9c:	10cc                	addi	a1,sp,100
  9e:	0000                	unimp
  a0:	10ce                	slli	ra,ra,0x33
  a2:	0000                	unimp
  a4:	10d0                	addi	a2,sp,100
  a6:	0000                	unimp
  a8:	10d2                	slli	ra,ra,0x34
  aa:	0000                	unimp
  ac:	10d4                	addi	a3,sp,100
  ae:	0000                	unimp
  b0:	10d6                	slli	ra,ra,0x35
  b2:	0000                	unimp
  b4:	10d8                	addi	a4,sp,100
  b6:	0000                	unimp
  b8:	10da                	slli	ra,ra,0x36
  ba:	0000                	unimp
  bc:	10dc                	addi	a5,sp,100
  be:	0000                	unimp
  c0:	10de                	slli	ra,ra,0x37
  c2:	0000                	unimp
  c4:	10e0                	addi	s0,sp,108
  c6:	0000                	unimp
  c8:	10e2                	slli	ra,ra,0x38
  ca:	0000                	unimp
  cc:	10e4                	addi	s1,sp,108
  ce:	0000                	unimp
  d0:	10e6                	slli	ra,ra,0x39
  d2:	0000                	unimp
  d4:	10e8                	addi	a0,sp,108
  d6:	0000                	unimp
  d8:	10ea                	slli	ra,ra,0x3a
  da:	0000                	unimp
  dc:	10ec                	addi	a1,sp,108
  de:	0000                	unimp
  e0:	10ee                	slli	ra,ra,0x3b
  e2:	0000                	unimp
  e4:	10f0                	addi	a2,sp,108
  e6:	0000                	unimp
  e8:	10f2                	slli	ra,ra,0x3c
  ea:	0000                	unimp
  ec:	10f4                	addi	a3,sp,108
  ee:	0000                	unimp
  f0:	10f6                	slli	ra,ra,0x3d
  f2:	0000                	unimp
  f4:	10f8                	addi	a4,sp,108
  f6:	0000                	unimp
  f8:	10fa                	slli	ra,ra,0x3e
  fa:	0000                	unimp
  fc:	10fc                	addi	a5,sp,108
  fe:	0000                	unimp
 100:	10fe                	slli	ra,ra,0x3f
 102:	0000                	unimp
 104:	1100                	addi	s0,sp,160
 106:	0000                	unimp
 108:	1102                	slli	sp,sp,0x20
 10a:	0000                	unimp
 10c:	1104                	addi	s1,sp,160
 10e:	0000                	unimp
 110:	1106                	slli	sp,sp,0x21
 112:	0000                	unimp
 114:	1108                	addi	a0,sp,160
 116:	0000                	unimp
 118:	110a                	slli	sp,sp,0x22
 11a:	0000                	unimp
 11c:	2120                	lbu	s0,2(a0)
 11e:	0000                	unimp
 120:	110e                	slli	sp,sp,0x23
 122:	0000                	unimp
 124:	1110                	addi	a2,sp,160
 126:	0000                	unimp
 128:	1112                	slli	sp,sp,0x24
 12a:	0000                	unimp
 12c:	1114                	addi	a3,sp,160
 12e:	0000                	unimp
 130:	1116                	slli	sp,sp,0x25
 132:	0000                	unimp
 134:	2146                	lhu	s1,4(a0)
 136:	0000                	unimp
 138:	214e                	lhu	a1,4(a0)
 13a:	0000                	unimp
 13c:	111c                	addi	a5,sp,160
 13e:	0000                	unimp
 140:	111e                	slli	sp,sp,0x27
 142:	0000                	unimp
 144:	1120                	addi	s0,sp,168
 146:	0000                	unimp
 148:	1122                	slli	sp,sp,0x28
 14a:	0000                	unimp
 14c:	1124                	addi	s1,sp,168
	...

Disassembly of section .highcode:

00000180 <Main_Circulation>:
     180:	09b042ef          	jal	t0,4a1a <__riscv_save_0>
     184:	2691                	jal	4c8 <TMOS_SystemProcess>
     186:	bffd                	j	184 <Main_Circulation+0x4>

00000188 <tmos_msg_enqueue>:
     188:	fe05ac23          	sw	zero,-8(a1)
     18c:	411c                	lw	a5,0(a0)
     18e:	e781                	bnez	a5,196 <tmos_msg_enqueue+0xe>
     190:	c10c                	sw	a1,0(a0)
     192:	8082                	ret
     194:	87ba                	mv	a5,a4
     196:	ff87a703          	lw	a4,-8(a5)
     19a:	ff6d                	bnez	a4,194 <tmos_msg_enqueue+0xc>
     19c:	feb7ac23          	sw	a1,-8(a5)
     1a0:	8082                	ret

000001a2 <tmos_msg_receive>:
     1a2:	20002717          	auipc	a4,0x20002
     1a6:	af270713          	addi	a4,a4,-1294 # 20001c94 <msg_qHead>
     1aa:	431c                	lw	a5,0(a4)
     1ac:	1141                	addi	sp,sp,-16
     1ae:	c422                	sw	s0,8(sp)
     1b0:	c226                	sw	s1,4(sp)
     1b2:	c04a                	sw	s2,0(sp)
     1b4:	c606                	sw	ra,12(sp)
     1b6:	4401                	li	s0,0
     1b8:	4901                	li	s2,0
     1ba:	84ba                	mv	s1,a4
     1bc:	e791                	bnez	a5,1c8 <tmos_msg_receive+0x26>
     1be:	65a1                	lui	a1,0x8
     1c0:	346020ef          	jal	ra,2506 <tmos_stop_task>
     1c4:	c805                	beqz	s0,1f4 <tmos_msg_receive+0x52>
     1c6:	a809                	j	1d8 <tmos_msg_receive+0x36>
     1c8:	ffe7c703          	lbu	a4,-2(a5)
     1cc:	02a71b63          	bne	a4,a0,202 <tmos_msg_receive+0x60>
     1d0:	cc15                	beqz	s0,20c <tmos_msg_receive+0x6a>
     1d2:	65a1                	lui	a1,0x8
     1d4:	1d4020ef          	jal	ra,23a8 <tmos_set_event>
     1d8:	4098                	lw	a4,0(s1)
     1da:	ff842783          	lw	a5,-8(s0)
     1de:	02e41963          	bne	s0,a4,210 <tmos_msg_receive+0x6e>
     1e2:	20002717          	auipc	a4,0x20002
     1e6:	aaf72923          	sw	a5,-1358(a4) # 20001c94 <msg_qHead>
     1ea:	57fd                	li	a5,-1
     1ec:	fe042c23          	sw	zero,-8(s0)
     1f0:	fef40f23          	sb	a5,-2(s0)
     1f4:	8522                	mv	a0,s0
     1f6:	40b2                	lw	ra,12(sp)
     1f8:	4422                	lw	s0,8(sp)
     1fa:	4492                	lw	s1,4(sp)
     1fc:	4902                	lw	s2,0(sp)
     1fe:	0141                	addi	sp,sp,16
     200:	8082                	ret
     202:	e011                	bnez	s0,206 <tmos_msg_receive+0x64>
     204:	893e                	mv	s2,a5
     206:	ff87a783          	lw	a5,-8(a5)
     20a:	bf4d                	j	1bc <tmos_msg_receive+0x1a>
     20c:	843e                	mv	s0,a5
     20e:	bfe5                	j	206 <tmos_msg_receive+0x64>
     210:	fef92c23          	sw	a5,-8(s2)
     214:	bfd9                	j	1ea <tmos_msg_receive+0x48>

00000216 <tmosFindTask>:
     216:	20002797          	auipc	a5,0x20002
     21a:	ad278793          	addi	a5,a5,-1326 # 20001ce8 <taskHead>
     21e:	439c                	lw	a5,0(a5)
     220:	e399                	bnez	a5,226 <tmosFindTask+0x10>
     222:	853e                	mv	a0,a5
     224:	8082                	ret
     226:	23ba                	lhu	a4,2(a5)
     228:	00b71563          	bne	a4,a1,232 <tmosFindTask+0x1c>
     22c:	2398                	lbu	a4,0(a5)
     22e:	fea70ae3          	beq	a4,a0,222 <tmosFindTask+0xc>
     232:	47dc                	lw	a5,12(a5)
     234:	b7f5                	j	220 <tmosFindTask+0xa>

00000236 <tmos_proces_sleep>:
     236:	1101                	addi	sp,sp,-32
     238:	0068                	addi	a0,sp,12
     23a:	ce06                	sw	ra,28(sp)
     23c:	cc22                	sw	s0,24(sp)
     23e:	786020ef          	jal	ra,29c4 <LL_GetNextConnectEventTime>
     242:	57fd                	li	a5,-1
     244:	08f50563          	beq	a0,a5,2ce <tmos_proces_sleep+0x98>
     248:	4732                	lw	a4,12(sp)
     24a:	cf35                	beqz	a4,2c6 <tmos_proces_sleep+0x90>
     24c:	20002417          	auipc	s0,0x20002
     250:	a4c40413          	addi	s0,s0,-1460 # 20001c98 <gTmosPara>
     254:	4818                	lw	a4,16(s0)
     256:	00f70e63          	beq	a4,a5,272 <tmos_proces_sleep+0x3c>
     25a:	20002797          	auipc	a5,0x20002
     25e:	ada78793          	addi	a5,a5,-1318 # 20001d34 <fnGetClockCBs>
     262:	439c                	lw	a5,0(a5)
     264:	9782                	jalr	a5
     266:	4732                	lw	a4,12(sp)
     268:	481c                	lw	a5,16(s0)
     26a:	00f77363          	bgeu	a4,a5,270 <tmos_proces_sleep+0x3a>
     26e:	87ba                	mv	a5,a4
     270:	953e                	add	a0,a0,a5
     272:	20002417          	auipc	s0,0x20002
     276:	ad240413          	addi	s0,s0,-1326 # 20001d44 <gBleIPPara>
     27a:	4c1c                	lw	a5,24(s0)
     27c:	cf81                	beqz	a5,294 <tmos_proces_sleep+0x5e>
     27e:	20002797          	auipc	a5,0x20002
     282:	b2e78793          	addi	a5,a5,-1234 # 20001dac <gptrRFENDReg>
     286:	4394                	lw	a3,0(a5)
     288:	ffcd0737          	lui	a4,0xffcd0
     28c:	177d                	addi	a4,a4,-1
     28e:	469c                	lw	a5,8(a3)
     290:	8ff9                	and	a5,a5,a4
     292:	c69c                	sw	a5,8(a3)
     294:	20002797          	auipc	a5,0x20002
     298:	a5878793          	addi	a5,a5,-1448 # 20001cec <ble>
     29c:	579c                	lw	a5,40(a5)
     29e:	9782                	jalr	a5
     2a0:	e519                	bnez	a0,2ae <tmos_proces_sleep+0x78>
     2a2:	4c1c                	lw	a5,24(s0)
     2a4:	c38d                	beqz	a5,2c6 <tmos_proces_sleep+0x90>
     2a6:	6b5020ef          	jal	ra,315a <LLE_DevInit>
     2aa:	1df020ef          	jal	ra,2c88 <BB_DevInit>
     2ae:	4c1c                	lw	a5,24(s0)
     2b0:	cb99                	beqz	a5,2c6 <tmos_proces_sleep+0x90>
     2b2:	20002797          	auipc	a5,0x20002
     2b6:	afa78793          	addi	a5,a5,-1286 # 20001dac <gptrRFENDReg>
     2ba:	4398                	lw	a4,0(a5)
     2bc:	003306b7          	lui	a3,0x330
     2c0:	471c                	lw	a5,8(a4)
     2c2:	8fd5                	or	a5,a5,a3
     2c4:	c71c                	sw	a5,8(a4)
     2c6:	40f2                	lw	ra,28(sp)
     2c8:	4462                	lw	s0,24(sp)
     2ca:	6105                	addi	sp,sp,32
     2cc:	8082                	ret
     2ce:	20002417          	auipc	s0,0x20002
     2d2:	9ca40413          	addi	s0,s0,-1590 # 20001c98 <gTmosPara>
     2d6:	481c                	lw	a5,16(s0)
     2d8:	fea787e3          	beq	a5,a0,2c6 <tmos_proces_sleep+0x90>
     2dc:	20002797          	auipc	a5,0x20002
     2e0:	a5878793          	addi	a5,a5,-1448 # 20001d34 <fnGetClockCBs>
     2e4:	439c                	lw	a5,0(a5)
     2e6:	9782                	jalr	a5
     2e8:	481c                	lw	a5,16(s0)
     2ea:	b759                	j	270 <tmos_proces_sleep+0x3a>

000002ec <tmos_memcpy>:
     2ec:	cd09                	beqz	a0,306 <tmos_memcpy+0x1a>
     2ee:	cd81                	beqz	a1,306 <tmos_memcpy+0x1a>
     2f0:	ca19                	beqz	a2,306 <tmos_memcpy+0x1a>
     2f2:	4781                	li	a5,0
     2f4:	00f58733          	add	a4,a1,a5
     2f8:	2314                	lbu	a3,0(a4)
     2fa:	00f50733          	add	a4,a0,a5
     2fe:	0785                	addi	a5,a5,1
     300:	a314                	sb	a3,0(a4)
     302:	fef619e3          	bne	a2,a5,2f4 <tmos_memcpy+0x8>
     306:	8082                	ret

00000308 <tmos_memcpy_word>:
     308:	c919                	beqz	a0,31e <tmos_memcpy_word+0x16>
     30a:	c991                	beqz	a1,31e <tmos_memcpy_word+0x16>
     30c:	ca09                	beqz	a2,31e <tmos_memcpy_word+0x16>
     30e:	0591                	addi	a1,a1,4
     310:	ffc5a783          	lw	a5,-4(a1) # 7ffc <_data_lma+0x20f8>
     314:	0511                	addi	a0,a0,4
     316:	167d                	addi	a2,a2,-1
     318:	fef52e23          	sw	a5,-4(a0)
     31c:	bfc5                	j	30c <tmos_memcpy_word+0x4>
     31e:	8082                	ret

00000320 <tmos_memset>:
     320:	c901                	beqz	a0,330 <tmos_memset+0x10>
     322:	c619                	beqz	a2,330 <tmos_memset+0x10>
     324:	962a                	add	a2,a2,a0
     326:	0505                	addi	a0,a0,1
     328:	feb50fa3          	sb	a1,-1(a0)
     32c:	fea61de3          	bne	a2,a0,326 <tmos_memset+0x6>
     330:	8082                	ret

00000332 <tmos_strlen>:
     332:	4781                	li	a5,0
     334:	00f50733          	add	a4,a0,a5
     338:	00070703          	lb	a4,0(a4) # ffcd0000 <_eusrstack+0xdfcc0000>
     33c:	e319                	bnez	a4,342 <tmos_strlen+0x10>
     33e:	853e                	mv	a0,a5
     340:	8082                	ret
     342:	0785                	addi	a5,a5,1
     344:	bfc5                	j	334 <tmos_strlen+0x2>

00000346 <tmos_memdup>:
     346:	1101                	addi	sp,sp,-32
     348:	862e                	mv	a2,a1
     34a:	ca26                	sw	s1,20(sp)
     34c:	84aa                	mv	s1,a0
     34e:	01061513          	slli	a0,a2,0x10
     352:	04f00593          	li	a1,79
     356:	8141                	srli	a0,a0,0x10
     358:	cc22                	sw	s0,24(sp)
     35a:	ce06                	sw	ra,28(sp)
     35c:	c632                	sw	a2,12(sp)
     35e:	377000ef          	jal	ra,ed4 <tmos_memory_allocate>
     362:	842a                	mv	s0,a0
     364:	c501                	beqz	a0,36c <tmos_memdup+0x26>
     366:	4632                	lw	a2,12(sp)
     368:	85a6                	mv	a1,s1
     36a:	3749                	jal	2ec <tmos_memcpy>
     36c:	8522                	mv	a0,s0
     36e:	40f2                	lw	ra,28(sp)
     370:	4462                	lw	s0,24(sp)
     372:	44d2                	lw	s1,20(sp)
     374:	6105                	addi	sp,sp,32
     376:	8082                	ret

00000378 <tmos_memcmp>:
     378:	4785                	li	a5,1
     37a:	c105                	beqz	a0,39a <tmos_memcmp+0x22>
     37c:	cd99                	beqz	a1,39a <tmos_memcmp+0x22>
     37e:	ce11                	beqz	a2,39a <tmos_memcmp+0x22>
     380:	4781                	li	a5,0
     382:	00f506b3          	add	a3,a0,a5
     386:	00f58733          	add	a4,a1,a5
     38a:	2294                	lbu	a3,0(a3)
     38c:	2318                	lbu	a4,0(a4)
     38e:	00e69863          	bne	a3,a4,39e <tmos_memcmp+0x26>
     392:	0785                	addi	a5,a5,1
     394:	fef617e3          	bne	a2,a5,382 <tmos_memcmp+0xa>
     398:	4785                	li	a5,1
     39a:	853e                	mv	a0,a5
     39c:	8082                	ret
     39e:	4781                	li	a5,0
     3a0:	bfed                	j	39a <tmos_memcmp+0x22>

000003a2 <tmos_revmemcpy>:
     3a2:	fff60793          	addi	a5,a2,-1
     3a6:	95be                	add	a1,a1,a5
     3a8:	962a                	add	a2,a2,a0
     3aa:	00c51363          	bne	a0,a2,3b0 <tmos_revmemcpy+0xe>
     3ae:	8082                	ret
     3b0:	15fd                	addi	a1,a1,-1
     3b2:	319c                	lbu	a5,1(a1)
     3b4:	0505                	addi	a0,a0,1
     3b6:	fef50fa3          	sb	a5,-1(a0)
     3ba:	bfc5                	j	3aa <tmos_revmemcpy+0x8>

000003bc <tmos_isbufset>:
     3bc:	87aa                	mv	a5,a0
     3be:	4501                	li	a0,0
     3c0:	cf81                	beqz	a5,3d8 <tmos_isbufset+0x1c>
     3c2:	ce09                	beqz	a2,3dc <tmos_isbufset+0x20>
     3c4:	963e                	add	a2,a2,a5
     3c6:	0785                	addi	a5,a5,1
     3c8:	fff7c703          	lbu	a4,-1(a5)
     3cc:	00b71763          	bne	a4,a1,3da <tmos_isbufset+0x1e>
     3d0:	fec79be3          	bne	a5,a2,3c6 <tmos_isbufset+0xa>
     3d4:	4505                	li	a0,1
     3d6:	8082                	ret
     3d8:	8082                	ret
     3da:	4501                	li	a0,0
     3dc:	8082                	ret

000003de <tmos_proces_system_time>:
     3de:	1101                	addi	sp,sp,-32
     3e0:	20002797          	auipc	a5,0x20002
     3e4:	90878793          	addi	a5,a5,-1784 # 20001ce8 <taskHead>
     3e8:	cc22                	sw	s0,24(sp)
     3ea:	4380                	lw	s0,0(a5)
     3ec:	ce06                	sw	ra,28(sp)
     3ee:	ca26                	sw	s1,20(sp)
     3f0:	c84a                	sw	s2,16(sp)
     3f2:	c64e                	sw	s3,12(sp)
     3f4:	c452                	sw	s4,8(sp)
     3f6:	c256                	sw	s5,4(sp)
     3f8:	c05a                	sw	s6,0(sp)
     3fa:	c459                	beqz	s0,488 <tmos_proces_system_time+0xaa>
     3fc:	01c9c937          	lui	s2,0x1c9c
     400:	4481                	li	s1,0
     402:	20002997          	auipc	s3,0x20002
     406:	93298993          	addi	s3,s3,-1742 # 20001d34 <fnGetClockCBs>
     40a:	37f90913          	addi	s2,s2,895 # 1c9c37f <_data_lma+0x1c9647b>
     40e:	20002a17          	auipc	s4,0x20002
     412:	8dea0a13          	addi	s4,s4,-1826 # 20001cec <ble>
     416:	20002a97          	auipc	s5,0x20002
     41a:	882a8a93          	addi	s5,s5,-1918 # 20001c98 <gTmosPara>
     41e:	203e                	lhu	a5,2(s0)
     420:	ef91                	bnez	a5,43c <tmos_proces_system_time+0x5e>
     422:	445c                	lw	a5,12(s0)
     424:	eca5                	bnez	s1,49c <tmos_proces_system_time+0xbe>
     426:	20002717          	auipc	a4,0x20002
     42a:	8cf72123          	sw	a5,-1854(a4) # 20001ce8 <taskHead>
     42e:	00c42b03          	lw	s6,12(s0)
     432:	8522                	mv	a0,s0
     434:	369000ef          	jal	ra,f9c <tmos_memory_free>
     438:	845a                	mv	s0,s6
     43a:	a80d                	j	46c <tmos_proces_system_time+0x8e>
     43c:	0009a783          	lw	a5,0(s3)
     440:	9782                	jalr	a5
     442:	441c                	lw	a5,8(s0)
     444:	40f50733          	sub	a4,a0,a5
     448:	04e96c63          	bltu	s2,a4,4a0 <tmos_proces_system_time+0xc2>
     44c:	20002797          	auipc	a5,0x20002
     450:	8407ae23          	sw	zero,-1956(a5) # 20001ca8 <gTmosPara+0x10>
     454:	202e                	lhu	a1,2(s0)
     456:	2008                	lbu	a0,0(s0)
     458:	751010ef          	jal	ra,23a8 <tmos_set_event>
     45c:	4054                	lw	a3,4(s0)
     45e:	445c                	lw	a5,12(s0)
     460:	d2f1                	beqz	a3,424 <tmos_proces_system_time+0x46>
     462:	4418                	lw	a4,8(s0)
     464:	84a2                	mv	s1,s0
     466:	9736                	add	a4,a4,a3
     468:	c418                	sw	a4,8(s0)
     46a:	843e                	mv	s0,a5
     46c:	f84d                	bnez	s0,41e <tmos_proces_system_time+0x40>
     46e:	20002797          	auipc	a5,0x20002
     472:	82a78793          	addi	a5,a5,-2006 # 20001c98 <gTmosPara>
     476:	4b9c                	lw	a5,16(a5)
     478:	4709                	li	a4,2
     47a:	04f77263          	bgeu	a4,a5,4be <tmos_proces_system_time+0xe0>
     47e:	17f9                	addi	a5,a5,-2
     480:	20002717          	auipc	a4,0x20002
     484:	82f72423          	sw	a5,-2008(a4) # 20001ca8 <gTmosPara+0x10>
     488:	40f2                	lw	ra,28(sp)
     48a:	4462                	lw	s0,24(sp)
     48c:	44d2                	lw	s1,20(sp)
     48e:	4942                	lw	s2,16(sp)
     490:	49b2                	lw	s3,12(sp)
     492:	4a22                	lw	s4,8(sp)
     494:	4a92                	lw	s5,4(sp)
     496:	4b02                	lw	s6,0(sp)
     498:	6105                	addi	sp,sp,32
     49a:	8082                	ret
     49c:	c4dc                	sw	a5,12(s1)
     49e:	bf41                	j	42e <tmos_proces_system_time+0x50>
     4a0:	028a2703          	lw	a4,40(s4)
     4a4:	cb11                	beqz	a4,4b8 <tmos_proces_system_time+0xda>
     4a6:	010aa703          	lw	a4,16(s5)
     4aa:	8f89                	sub	a5,a5,a0
     4ac:	00e7f663          	bgeu	a5,a4,4b8 <tmos_proces_system_time+0xda>
     4b0:	20001717          	auipc	a4,0x20001
     4b4:	7ef72c23          	sw	a5,2040(a4) # 20001ca8 <gTmosPara+0x10>
     4b8:	84a2                	mv	s1,s0
     4ba:	4440                	lw	s0,12(s0)
     4bc:	bf45                	j	46c <tmos_proces_system_time+0x8e>
     4be:	20001797          	auipc	a5,0x20001
     4c2:	7e07a523          	sw	zero,2026(a5) # 20001ca8 <gTmosPara+0x10>
     4c6:	b7c9                	j	488 <tmos_proces_system_time+0xaa>

000004c8 <TMOS_SystemProcess>:
     4c8:	1141                	addi	sp,sp,-16
     4ca:	c422                	sw	s0,8(sp)
     4cc:	20001417          	auipc	s0,0x20001
     4d0:	7f840413          	addi	s0,s0,2040 # 20001cc4 <pfnProcessCBs>
     4d4:	401c                	lw	a5,0(s0)
     4d6:	c606                	sw	ra,12(sp)
     4d8:	c226                	sw	s1,4(sp)
     4da:	c04a                	sw	s2,0(sp)
     4dc:	c791                	beqz	a5,4e8 <TMOS_SystemProcess+0x20>
     4de:	9782                	jalr	a5
     4e0:	20001797          	auipc	a5,0x20001
     4e4:	7e07a223          	sw	zero,2020(a5) # 20001cc4 <pfnProcessCBs>
     4e8:	405c                	lw	a5,4(s0)
     4ea:	c391                	beqz	a5,4ee <TMOS_SystemProcess+0x26>
     4ec:	9782                	jalr	a5
     4ee:	401c                	lw	a5,0(s0)
     4f0:	18079a63          	bnez	a5,684 <TMOS_SystemProcess+0x1bc>
     4f4:	20002797          	auipc	a5,0x20002
     4f8:	8557c783          	lbu	a5,-1963(a5) # 20001d49 <gBleIPPara+0x5>
     4fc:	8b85                	andi	a5,a5,1
     4fe:	c795                	beqz	a5,52a <TMOS_SystemProcess+0x62>
     500:	20002797          	auipc	a5,0x20002
     504:	840784a3          	sb	zero,-1975(a5) # 20001d49 <gBleIPPara+0x5>
     508:	20002717          	auipc	a4,0x20002
     50c:	84374703          	lbu	a4,-1981(a4) # 20001d4b <gBleIPPara+0x7>
     510:	4791                	li	a5,4
     512:	00e7fc63          	bgeu	a5,a4,52a <TMOS_SystemProcess+0x62>
     516:	2c79                	jal	7b4 <ll_rx_wait_finish>
     518:	20002797          	auipc	a5,0x20002
     51c:	8337c783          	lbu	a5,-1997(a5) # 20001d4b <gBleIPPara+0x7>
     520:	17f9                	addi	a5,a5,-2
     522:	078a                	slli	a5,a5,0x2
     524:	97a2                	add	a5,a5,s0
     526:	439c                	lw	a5,0(a5)
     528:	9782                	jalr	a5
     52a:	20002917          	auipc	s2,0x20002
     52e:	85a90913          	addi	s2,s2,-1958 # 20001d84 <rfInfo>
     532:	00c94783          	lbu	a5,12(s2)
     536:	8b91                	andi	a5,a5,4
     538:	c399                	beqz	a5,53e <TMOS_SystemProcess+0x76>
     53a:	0f5000ef          	jal	ra,e2e <RF_FrequencyHoppingChange>
     53e:	441c                	lw	a5,8(s0)
     540:	c391                	beqz	a5,544 <TMOS_SystemProcess+0x7c>
     542:	9782                	jalr	a5
     544:	20001497          	auipc	s1,0x20001
     548:	7a048493          	addi	s1,s1,1952 # 20001ce4 <EventsArr>
     54c:	4098                	lw	a4,0(s1)
     54e:	20001617          	auipc	a2,0x20001
     552:	74b64603          	lbu	a2,1867(a2) # 20001c99 <gTmosPara+0x1>
     556:	20001797          	auipc	a5,0x20001
     55a:	7427c783          	lbu	a5,1858(a5) # 20001c98 <gTmosPara>
     55e:	00179693          	slli	a3,a5,0x1
     562:	96ba                	add	a3,a3,a4
     564:	2296                	lhu	a3,0(a3)
     566:	cac1                	beqz	a3,5f6 <TMOS_SystemProcess+0x12e>
     568:	20001797          	auipc	a5,0x20001
     56c:	7307c783          	lbu	a5,1840(a5) # 20001c98 <gTmosPara>
     570:	08c7ed63          	bltu	a5,a2,60a <TMOS_SystemProcess+0x142>
     574:	20001797          	auipc	a5,0x20001
     578:	72078223          	sb	zero,1828(a5) # 20001c98 <gTmosPara>
     57c:	401c                	lw	a5,0(s0)
     57e:	10079363          	bnez	a5,684 <TMOS_SystemProcess+0x1bc>
     582:	20001797          	auipc	a5,0x20001
     586:	7cb7c783          	lbu	a5,1995(a5) # 20001d4d <gBleIPPara+0x9>
     58a:	cf81                	beqz	a5,5a2 <TMOS_SystemProcess+0xda>
     58c:	20001797          	auipc	a5,0x20001
     590:	7bf7c783          	lbu	a5,1983(a5) # 20001d4b <gBleIPPara+0x7>
     594:	e799                	bnez	a5,5a2 <TMOS_SystemProcess+0xda>
     596:	20001797          	auipc	a5,0x20001
     59a:	7a078ba3          	sb	zero,1975(a5) # 20001d4d <gBleIPPara+0x9>
     59e:	1dd020ef          	jal	ra,2f7a <ll_multi_states_process>
     5a2:	20001797          	auipc	a5,0x20001
     5a6:	79278793          	addi	a5,a5,1938 # 20001d34 <fnGetClockCBs>
     5aa:	439c                	lw	a5,0(a5)
     5ac:	cfe1                	beqz	a5,684 <TMOS_SystemProcess+0x1bc>
     5ae:	57fd                	li	a5,-1
     5b0:	20001717          	auipc	a4,0x20001
     5b4:	6ef72c23          	sw	a5,1784(a4) # 20001ca8 <gTmosPara+0x10>
     5b8:	351d                	jal	3de <tmos_proces_system_time>
     5ba:	20001797          	auipc	a5,0x20001
     5be:	73278793          	addi	a5,a5,1842 # 20001cec <ble>
     5c2:	579c                	lw	a5,40(a5)
     5c4:	c3e1                	beqz	a5,684 <TMOS_SystemProcess+0x1bc>
     5c6:	20001717          	auipc	a4,0x20001
     5ca:	78574703          	lbu	a4,1925(a4) # 20001d4b <gBleIPPara+0x7>
     5ce:	4791                	li	a5,4
     5d0:	0ae7ea63          	bltu	a5,a4,684 <TMOS_SystemProcess+0x1bc>
     5d4:	00c94783          	lbu	a5,12(s2)
     5d8:	8b91                	andi	a5,a5,4
     5da:	e7cd                	bnez	a5,684 <TMOS_SystemProcess+0x1bc>
     5dc:	4090                	lw	a2,0(s1)
     5de:	20001697          	auipc	a3,0x20001
     5e2:	6bb6c683          	lbu	a3,1723(a3) # 20001c99 <gTmosPara+0x1>
     5e6:	0ad7e563          	bltu	a5,a3,690 <TMOS_SystemProcess+0x1c8>
     5ea:	4422                	lw	s0,8(sp)
     5ec:	40b2                	lw	ra,12(sp)
     5ee:	4492                	lw	s1,4(sp)
     5f0:	4902                	lw	s2,0(sp)
     5f2:	0141                	addi	sp,sp,16
     5f4:	b189                	j	236 <tmos_proces_sleep>
     5f6:	0785                	addi	a5,a5,1
     5f8:	0ff7f793          	andi	a5,a5,255
     5fc:	20001697          	auipc	a3,0x20001
     600:	68f68e23          	sb	a5,1692(a3) # 20001c98 <gTmosPara>
     604:	f4c7e9e3          	bltu	a5,a2,556 <TMOS_SystemProcess+0x8e>
     608:	b785                	j	568 <TMOS_SystemProcess+0xa0>
     60a:	0786                	slli	a5,a5,0x1
     60c:	973e                	add	a4,a4,a5
     60e:	230e                	lhu	a1,0(a4)
     610:	00071023          	sh	zero,0(a4)
     614:	20001797          	auipc	a5,0x20001
     618:	6c079623          	sh	zero,1740(a5) # 20001ce0 <eventsClear>
     61c:	20001797          	auipc	a5,0x20001
     620:	6a478793          	addi	a5,a5,1700 # 20001cc0 <tasksArr>
     624:	439c                	lw	a5,0(a5)
     626:	20001517          	auipc	a0,0x20001
     62a:	67254503          	lbu	a0,1650(a0) # 20001c98 <gTmosPara>
     62e:	00251713          	slli	a4,a0,0x2
     632:	97ba                	add	a5,a5,a4
     634:	439c                	lw	a5,0(a5)
     636:	9782                	jalr	a5
     638:	20001797          	auipc	a5,0x20001
     63c:	6a87d783          	lhu	a5,1704(a5) # 20001ce0 <eventsClear>
     640:	20001717          	auipc	a4,0x20001
     644:	65874703          	lbu	a4,1624(a4) # 20001c98 <gTmosPara>
     648:	fff7c793          	not	a5,a5
     64c:	8d7d                	and	a0,a0,a5
     64e:	00171793          	slli	a5,a4,0x1
     652:	4098                	lw	a4,0(s1)
     654:	973e                	add	a4,a4,a5
     656:	231e                	lhu	a5,0(a4)
     658:	8d5d                	or	a0,a0,a5
     65a:	a30a                	sh	a0,0(a4)
     65c:	20001797          	auipc	a5,0x20001
     660:	63c7c783          	lbu	a5,1596(a5) # 20001c98 <gTmosPara>
     664:	c791                	beqz	a5,670 <TMOS_SystemProcess+0x1a8>
     666:	0785                	addi	a5,a5,1
     668:	20001717          	auipc	a4,0x20001
     66c:	62f70823          	sb	a5,1584(a4) # 20001c98 <gTmosPara>
     670:	20001717          	auipc	a4,0x20001
     674:	62874703          	lbu	a4,1576(a4) # 20001c98 <gTmosPara>
     678:	20001797          	auipc	a5,0x20001
     67c:	6217c783          	lbu	a5,1569(a5) # 20001c99 <gTmosPara+0x1>
     680:	eef77ae3          	bgeu	a4,a5,574 <TMOS_SystemProcess+0xac>
     684:	40b2                	lw	ra,12(sp)
     686:	4422                	lw	s0,8(sp)
     688:	4492                	lw	s1,4(sp)
     68a:	4902                	lw	s2,0(sp)
     68c:	0141                	addi	sp,sp,16
     68e:	8082                	ret
     690:	00179713          	slli	a4,a5,0x1
     694:	9732                	add	a4,a4,a2
     696:	231a                	lhu	a4,0(a4)
     698:	f775                	bnez	a4,684 <TMOS_SystemProcess+0x1bc>
     69a:	0785                	addi	a5,a5,1
     69c:	b7a9                	j	5e6 <TMOS_SystemProcess+0x11e>

0000069e <clockGetHSEValue>:
     69e:	67ad                	lui	a5,0xb
     6a0:	40024737          	lui	a4,0x40024
     6a4:	07bd                	addi	a5,a5,15
     6a6:	20f72623          	sw	a5,524(a4) # 4002420c <_eusrstack+0x2001420c>
     6aa:	0001                	nop
     6ac:	0001                	nop
     6ae:	20001797          	auipc	a5,0x20001
     6b2:	5ea78793          	addi	a5,a5,1514 # 20001c98 <gTmosPara>
     6b6:	4fc8                	lw	a0,28(a5)
     6b8:	26872783          	lw	a5,616(a4)
     6bc:	66bd                	lui	a3,0xf
     6be:	06bd                	addi	a3,a3,15
     6c0:	fff7c793          	not	a5,a5
     6c4:	8399                	srli	a5,a5,0x6
     6c6:	056a                	slli	a0,a0,0x1a
     6c8:	20d72623          	sw	a3,524(a4)
     6cc:	8d5d                	or	a0,a0,a5
     6ce:	8082                	ret

000006d0 <TMOS_TimerIRQHandler>:
     6d0:	8082                	ret

000006d2 <BB_IRQLibHandler>:
     6d2:	20001717          	auipc	a4,0x20001
     6d6:	66a70713          	addi	a4,a4,1642 # 20001d3c <gptrBBReg>
     6da:	4314                	lw	a3,0(a4)
     6dc:	1141                	addi	sp,sp,-16
     6de:	c422                	sw	s0,8(sp)
     6e0:	5e9c                	lw	a5,56(a3)
     6e2:	c606                	sw	ra,12(sp)
     6e4:	c226                	sw	s1,4(sp)
     6e6:	8399                	srli	a5,a5,0x6
     6e8:	8b85                	andi	a5,a5,1
     6ea:	843a                	mv	s0,a4
     6ec:	cba5                	beqz	a5,75c <BB_IRQLibHandler+0x8a>
     6ee:	06000793          	li	a5,96
     6f2:	de9c                	sw	a5,56(a3)
     6f4:	20001797          	auipc	a5,0x20001
     6f8:	6507c783          	lbu	a5,1616(a5) # 20001d44 <gBleIPPara>
     6fc:	0407f793          	andi	a5,a5,64
     700:	20001497          	auipc	s1,0x20001
     704:	64448493          	addi	s1,s1,1604 # 20001d44 <gBleIPPara>
     708:	c395                	beqz	a5,72c <BB_IRQLibHandler+0x5a>
     70a:	20001797          	auipc	a5,0x20001
     70e:	62a78793          	addi	a5,a5,1578 # 20001d34 <fnGetClockCBs>
     712:	439c                	lw	a5,0(a5)
     714:	9782                	jalr	a5
     716:	20001797          	auipc	a5,0x20001
     71a:	62a7af23          	sw	a0,1598(a5) # 20001d54 <gBleIPPara+0x10>
     71e:	209c                	lbu	a5,0(s1)
     720:	0bf7f793          	andi	a5,a5,191
     724:	20001717          	auipc	a4,0x20001
     728:	62f70023          	sb	a5,1568(a4) # 20001d44 <gBleIPPara>
     72c:	20dc                	lbu	a5,4(s1)
     72e:	0407f793          	andi	a5,a5,64
     732:	e78d                	bnez	a5,75c <BB_IRQLibHandler+0x8a>
     734:	4785                	li	a5,1
     736:	20001717          	auipc	a4,0x20001
     73a:	60f709a3          	sb	a5,1555(a4) # 20001d49 <gBleIPPara+0x5>
     73e:	20001797          	auipc	a5,0x20001
     742:	62278793          	addi	a5,a5,1570 # 20001d60 <gptrLLEReg>
     746:	439c                	lw	a5,0(a5)
     748:	6709                	lui	a4,0x2
     74a:	c798                	sw	a4,8(a5)
     74c:	fc000713          	li	a4,-64
     750:	20001697          	auipc	a3,0x20001
     754:	5ee68c23          	sb	a4,1528(a3) # 20001d48 <gBleIPPara+0x4>
     758:	44d8                	lw	a4,12(s1)
     75a:	d3f8                	sw	a4,100(a5)
     75c:	4018                	lw	a4,0(s0)
     75e:	5f1c                	lw	a5,56(a4)
     760:	8391                	srli	a5,a5,0x4
     762:	8b85                	andi	a5,a5,1
     764:	cb81                	beqz	a5,774 <BB_IRQLibHandler+0xa2>
     766:	47c1                	li	a5,16
     768:	df1c                	sw	a5,56(a4)
     76a:	4785                	li	a5,1
     76c:	20001697          	auipc	a3,0x20001
     770:	5cf68e23          	sb	a5,1500(a3) # 20001d48 <gBleIPPara+0x4>
     774:	5f1c                	lw	a5,56(a4)
     776:	839d                	srli	a5,a5,0x7
     778:	8b85                	andi	a5,a5,1
     77a:	cb89                	beqz	a5,78c <BB_IRQLibHandler+0xba>
     77c:	08000793          	li	a5,128
     780:	df1c                	sw	a5,56(a4)
     782:	4785                	li	a5,1
     784:	20001717          	auipc	a4,0x20001
     788:	5cf70223          	sb	a5,1476(a4) # 20001d48 <gBleIPPara+0x4>
     78c:	20001797          	auipc	a5,0x20001
     790:	5ac78793          	addi	a5,a5,1452 # 20001d38 <gptrAESReg>
     794:	439c                	lw	a5,0(a5)
     796:	43d8                	lw	a4,4(a5)
     798:	8305                	srli	a4,a4,0x1
     79a:	8b05                	andi	a4,a4,1
     79c:	c719                	beqz	a4,7aa <BB_IRQLibHandler+0xd8>
     79e:	43d8                	lw	a4,4(a5)
     7a0:	9b75                	andi	a4,a4,-3
     7a2:	c3d8                	sw	a4,4(a5)
     7a4:	43d8                	lw	a4,4(a5)
     7a6:	9b79                	andi	a4,a4,-2
     7a8:	c3d8                	sw	a4,4(a5)
     7aa:	40b2                	lw	ra,12(sp)
     7ac:	4422                	lw	s0,8(sp)
     7ae:	4492                	lw	s1,4(sp)
     7b0:	0141                	addi	sp,sp,16
     7b2:	8082                	ret

000007b4 <ll_rx_wait_finish>:
     7b4:	20001797          	auipc	a5,0x20001
     7b8:	5ac78793          	addi	a5,a5,1452 # 20001d60 <gptrLLEReg>
     7bc:	4394                	lw	a3,0(a5)
     7be:	20001797          	auipc	a5,0x20001
     7c2:	58678793          	addi	a5,a5,1414 # 20001d44 <gBleIPPara>
     7c6:	2398                	lbu	a4,0(a5)
     7c8:	8b05                	andi	a4,a4,1
     7ca:	cb11                	beqz	a4,7de <ll_rx_wait_finish+0x2a>
     7cc:	20001797          	auipc	a5,0x20001
     7d0:	56078e23          	sb	zero,1404(a5) # 20001d48 <gBleIPPara+0x4>
     7d4:	20001797          	auipc	a5,0x20001
     7d8:	56078aa3          	sb	zero,1397(a5) # 20001d49 <gBleIPPara+0x5>
     7dc:	8082                	ret
     7de:	3398                	lbu	a4,1(a5)
     7e0:	8b05                	andi	a4,a4,1
     7e2:	f76d                	bnez	a4,7cc <ll_rx_wait_finish+0x18>
     7e4:	52f8                	lw	a4,100(a3)
     7e6:	f365                	bnez	a4,7c6 <ll_rx_wait_finish+0x12>
     7e8:	33dc                	lbu	a5,5(a5)
     7ea:	b7ed                	j	7d4 <ll_rx_wait_finish+0x20>

000007ec <ble_ll_chkcrc>:
     7ec:	20001817          	auipc	a6,0x20001
     7f0:	55080813          	addi	a6,a6,1360 # 20001d3c <gptrBBReg>
     7f4:	00082703          	lw	a4,0(a6)
     7f8:	5f1c                	lw	a5,56(a4)
     7fa:	8395                	srli	a5,a5,0x5
     7fc:	8b85                	andi	a5,a5,1
     7fe:	e7bd                	bnez	a5,86c <__stack_size+0x6c>
     800:	c601                	beqz	a2,808 <__stack_size+0x8>
     802:	5b1c                	lw	a5,48(a4)
     804:	83bd                	srli	a5,a5,0xf
     806:	a21c                	sb	a5,0(a2)
     808:	c69d                	beqz	a3,836 <__stack_size+0x36>
     80a:	00082783          	lw	a5,0(a6)
     80e:	5b98                	lw	a4,48(a5)
     810:	0746                	slli	a4,a4,0x11
     812:	01675793          	srli	a5,a4,0x16
     816:	00075663          	bgez	a4,822 <__stack_size+0x22>
     81a:	c007e793          	ori	a5,a5,-1024
     81e:	07c2                	slli	a5,a5,0x10
     820:	83c1                	srli	a5,a5,0x10
     822:	00069703          	lh	a4,0(a3)
     826:	07c2                	slli	a5,a5,0x10
     828:	87c1                	srai	a5,a5,0x10
     82a:	c709                	beqz	a4,834 <__stack_size+0x34>
     82c:	97ba                	add	a5,a5,a4
     82e:	4709                	li	a4,2
     830:	02e7c7b3          	div	a5,a5,a4
     834:	a29e                	sh	a5,0(a3)
     836:	c185                	beqz	a1,856 <__stack_size+0x56>
     838:	311c                	lbu	a5,1(a0)
     83a:	cf91                	beqz	a5,856 <__stack_size+0x56>
     83c:	953e                	add	a0,a0,a5
     83e:	351c                	lbu	a5,9(a0)
     840:	4705                	li	a4,1
     842:	4519                	li	a0,6
     844:	06f7f693          	andi	a3,a5,111
     848:	02e69363          	bne	a3,a4,86e <__stack_size+0x6e>
     84c:	07e2                	slli	a5,a5,0x18
     84e:	87e1                	srai	a5,a5,0x18
     850:	4539                	li	a0,14
     852:	0007ce63          	bltz	a5,86e <__stack_size+0x6e>
     856:	00082783          	lw	a5,0(a6)
     85a:	4501                	li	a0,0
     85c:	5f9c                	lw	a5,56(a5)
     85e:	83ed                	srli	a5,a5,0x1b
     860:	8b8d                	andi	a5,a5,3
     862:	20001717          	auipc	a4,0x20001
     866:	4ef706a3          	sb	a5,1261(a4) # 20001d4f <gBleIPPara+0xb>
     86a:	8082                	ret
     86c:	4505                	li	a0,1
     86e:	8082                	ret

00000870 <ll_tx_wait_finish>:
     870:	1141                	addi	sp,sp,-16
     872:	c422                	sw	s0,8(sp)
     874:	c606                	sw	ra,12(sp)
     876:	20001417          	auipc	s0,0x20001
     87a:	4ea40413          	addi	s0,s0,1258 # 20001d60 <gptrLLEReg>
     87e:	4018                	lw	a4,0(s0)
     880:	e53d                	bnez	a0,8ee <ll_tx_wait_finish+0x7e>
     882:	87ae                	mv	a5,a1
     884:	5374                	lw	a3,100(a4)
     886:	fefd                	bnez	a3,884 <ll_tx_wait_finish+0x14>
     888:	853e                	mv	a0,a5
     88a:	85b2                	mv	a1,a2
     88c:	20001797          	auipc	a5,0x20001
     890:	4a078d23          	sb	zero,1210(a5) # 20001d46 <gBleIPPara+0x2>
     894:	48a020ef          	jal	ra,2d1e <BLE_SetPHYTxMode>
     898:	20001797          	auipc	a5,0x20001
     89c:	4a478793          	addi	a5,a5,1188 # 20001d3c <gptrBBReg>
     8a0:	439c                	lw	a5,0(a5)
     8a2:	008006b7          	lui	a3,0x800
     8a6:	4398                	lw	a4,0(a5)
     8a8:	8f55                	or	a4,a4,a3
     8aa:	c398                	sw	a4,0(a5)
     8ac:	57d8                	lw	a4,44(a5)
     8ae:	9b71                	andi	a4,a4,-4
     8b0:	d7d8                	sw	a4,44(a5)
     8b2:	20001797          	auipc	a5,0x20001
     8b6:	48078ba3          	sb	zero,1175(a5) # 20001d49 <gBleIPPara+0x5>
     8ba:	20001797          	auipc	a5,0x20001
     8be:	480785a3          	sb	zero,1163(a5) # 20001d45 <gBleIPPara+0x1>
     8c2:	401c                	lw	a5,0(s0)
     8c4:	4709                	li	a4,2
     8c6:	c398                	sw	a4,0(a5)
     8c8:	4014                	lw	a3,0(s0)
     8ca:	20001717          	auipc	a4,0x20001
     8ce:	47a70713          	addi	a4,a4,1146 # 20001d44 <gBleIPPara>
     8d2:	233c                	lbu	a5,2(a4)
     8d4:	8b85                	andi	a5,a5,1
     8d6:	eb81                	bnez	a5,8e6 <ll_tx_wait_finish+0x76>
     8d8:	333c                	lbu	a5,3(a4)
     8da:	8b85                	andi	a5,a5,1
     8dc:	c7d9                	beqz	a5,96a <ll_tx_wait_finish+0xfa>
     8de:	20001797          	auipc	a5,0x20001
     8e2:	46078523          	sb	zero,1130(a5) # 20001d48 <gBleIPPara+0x4>
     8e6:	40b2                	lw	ra,12(sp)
     8e8:	4422                	lw	s0,8(sp)
     8ea:	0141                	addi	sp,sp,16
     8ec:	8082                	ret
     8ee:	478d                	li	a5,3
     8f0:	02f51063          	bne	a0,a5,910 <ll_tx_wait_finish+0xa0>
     8f4:	20001797          	auipc	a5,0x20001
     8f8:	44878793          	addi	a5,a5,1096 # 20001d3c <gptrBBReg>
     8fc:	439c                	lw	a5,0(a5)
     8fe:	008006b7          	lui	a3,0x800
     902:	4398                	lw	a4,0(a5)
     904:	8f55                	or	a4,a4,a3
     906:	c398                	sw	a4,0(a5)
     908:	57d8                	lw	a4,44(a5)
     90a:	9b71                	andi	a4,a4,-4
     90c:	d7d8                	sw	a4,44(a5)
     90e:	bf6d                	j	8c8 <ll_tx_wait_finish+0x58>
     910:	4785                	li	a5,1
     912:	faf51be3          	bne	a0,a5,8c8 <ll_tx_wait_finish+0x58>
     916:	67b5                	lui	a5,0xd
     918:	07bd                	addi	a5,a5,15
     91a:	c75c                	sw	a5,12(a4)
     91c:	0001                	nop
     91e:	0001                	nop
     920:	401c                	lw	a5,0(s0)
     922:	6709                	lui	a4,0x2
     924:	4609                	li	a2,2
     926:	c798                	sw	a4,8(a5)
     928:	f8000713          	li	a4,-128
     92c:	20001697          	auipc	a3,0x20001
     930:	40e68e23          	sb	a4,1052(a3) # 20001d48 <gBleIPPara+0x4>
     934:	20001717          	auipc	a4,0x20001
     938:	40870713          	addi	a4,a4,1032 # 20001d3c <gptrBBReg>
     93c:	4314                	lw	a3,0(a4)
     93e:	4298                	lw	a4,0(a3)
     940:	8331                	srli	a4,a4,0xc
     942:	8b0d                	andi	a4,a4,3
     944:	00c71963          	bne	a4,a2,956 <ll_tx_wait_finish+0xe6>
     948:	43e00713          	li	a4,1086
     94c:	d3f8                	sw	a4,100(a5)
     94e:	673d                	lui	a4,0xf
     950:	073d                	addi	a4,a4,15
     952:	c7d8                	sw	a4,12(a5)
     954:	bf95                	j	8c8 <ll_tx_wait_finish+0x58>
     956:	4298                	lw	a4,0(a3)
     958:	8331                	srli	a4,a4,0xc
     95a:	8b0d                	andi	a4,a4,3
     95c:	e701                	bnez	a4,964 <ll_tx_wait_finish+0xf4>
     95e:	19600713          	li	a4,406
     962:	b7ed                	j	94c <ll_tx_wait_finish+0xdc>
     964:	1be00713          	li	a4,446
     968:	b7d5                	j	94c <ll_tx_wait_finish+0xdc>
     96a:	52fc                	lw	a5,100(a3)
     96c:	f3bd                	bnez	a5,8d2 <ll_tx_wait_finish+0x62>
     96e:	bfa5                	j	8e6 <ll_tx_wait_finish+0x76>

00000970 <BLE_CheckHoppingMap>:
     970:	715d                	addi	sp,sp,-80
     972:	dc52                	sw	s4,56(sp)
     974:	20001a17          	auipc	s4,0x20001
     978:	3c8a0a13          	addi	s4,s4,968 # 20001d3c <gptrBBReg>
     97c:	000a2703          	lw	a4,0(s4)
     980:	c686                	sw	ra,76(sp)
     982:	c4a2                	sw	s0,72(sp)
     984:	c2a6                	sw	s1,68(sp)
     986:	c0ca                	sw	s2,64(sp)
     988:	de4e                	sw	s3,60(sp)
     98a:	431c                	lw	a5,0(a4)
     98c:	20001997          	auipc	s3,0x20001
     990:	42098993          	addi	s3,s3,1056 # 20001dac <gptrRFENDReg>
     994:	20001917          	auipc	s2,0x20001
     998:	3cc90913          	addi	s2,s2,972 # 20001d60 <gptrLLEReg>
     99c:	e7f7f793          	andi	a5,a5,-385
     9a0:	0807e793          	ori	a5,a5,128
     9a4:	c31c                	sw	a5,0(a4)
     9a6:	0009a683          	lw	a3,0(s3)
     9aa:	ffce0737          	lui	a4,0xffce0
     9ae:	177d                	addi	a4,a4,-1
     9b0:	469c                	lw	a5,8(a3)
     9b2:	02800613          	li	a2,40
     9b6:	842a                	mv	s0,a0
     9b8:	8ff9                	and	a5,a5,a4
     9ba:	c69c                	sw	a5,8(a3)
     9bc:	00092783          	lw	a5,0(s2)
     9c0:	0028                	addi	a0,sp,8
     9c2:	84ae                	mv	s1,a1
     9c4:	0407a823          	sw	zero,80(a5) # d050 <_data_lma+0x714c>
     9c8:	08100593          	li	a1,129
     9cc:	3a91                	jal	320 <tmos_memset>
     9ce:	578020ef          	jal	ra,2f46 <ll_multi_states_check>
     9d2:	644020ef          	jal	ra,3016 <ble_ll_hw_api_shut>
     9d6:	000a2783          	lw	a5,0(s4)
     9da:	1ff47693          	andi	a3,s0,511
     9de:	00330637          	lui	a2,0x330
     9e2:	0007a423          	sw	zero,8(a5)
     9e6:	4b98                	lw	a4,16(a5)
     9e8:	fffc0f37          	lui	t5,0xfffc0
     9ec:	884e                	mv	a6,s3
     9ee:	03f76713          	ori	a4,a4,63
     9f2:	cb98                	sw	a4,16(a5)
     9f4:	4ff8                	lw	a4,92(a5)
     9f6:	88ca                	mv	a7,s2
     9f8:	f8100513          	li	a0,-127
     9fc:	e0077713          	andi	a4,a4,-512
     a00:	8f55                	or	a4,a4,a3
     a02:	cff8                	sw	a4,92(a5)
     a04:	4398                	lw	a4,0(a5)
     a06:	76f5                	lui	a3,0xffffd
     a08:	16fd                	addi	a3,a3,-1
     a0a:	8f75                	and	a4,a4,a3
     a0c:	c398                	sw	a4,0(a5)
     a0e:	20001717          	auipc	a4,0x20001
     a12:	32070da3          	sb	zero,827(a4) # 20001d49 <gBleIPPara+0x5>
     a16:	00092683          	lw	a3,0(s2)
     a1a:	20001717          	auipc	a4,0x20001
     a1e:	320705a3          	sb	zero,811(a4) # 20001d45 <gBleIPPara+0x1>
     a22:	4705                	li	a4,1
     a24:	c298                	sw	a4,0(a3)
     a26:	4398                	lw	a4,0(a5)
     a28:	85d2                	mv	a1,s4
     a2a:	000402b7          	lui	t0,0x40
     a2e:	e7f77713          	andi	a4,a4,-385
     a32:	c398                	sw	a4,0(a5)
     a34:	4398                	lw	a4,0(a5)
     a36:	1f400393          	li	t2,500
     a3a:	4911                	li	s2,4
     a3c:	e7f77713          	andi	a4,a4,-385
     a40:	10076713          	ori	a4,a4,256
     a44:	c398                	sw	a4,0(a5)
     a46:	0009a703          	lw	a4,0(s3)
     a4a:	1f7d                	addi	t5,t5,-1
     a4c:	4985                	li	s3,1
     a4e:	471c                	lw	a5,8(a4)
     a50:	02800f93          	li	t6,40
     a54:	8fd1                	or	a5,a5,a2
     a56:	c71c                	sw	a5,8(a4)
     a58:	05900793          	li	a5,89
     a5c:	cabc                	sw	a5,80(a3)
     a5e:	4701                	li	a4,0
     a60:	0034                	addi	a3,sp,8
     a62:	00375313          	srli	t1,a4,0x3
     a66:	9326                	add	t1,t1,s1
     a68:	00034783          	lbu	a5,0(t1)
     a6c:	00777613          	andi	a2,a4,7
     a70:	40c7d7b3          	sra	a5,a5,a2
     a74:	8b85                	andi	a5,a5,1
     a76:	cfdd                	beqz	a5,b34 <BLE_CheckHoppingMap+0x1c4>
     a78:	419c                	lw	a5,0(a1)
     a7a:	00082e83          	lw	t4,0(a6)
     a7e:	04079c23          	sh	zero,88(a5)
     a82:	06079023          	sh	zero,96(a5)
     a86:	02ceae03          	lw	t3,44(t4)
     a8a:	ffde7e13          	andi	t3,t3,-3
     a8e:	03cea623          	sw	t3,44(t4)
     a92:	0007ae83          	lw	t4,0(a5)
     a96:	07f77e13          	andi	t3,a4,127
     a9a:	f80efe93          	andi	t4,t4,-128
     a9e:	01ceee33          	or	t3,t4,t3
     aa2:	01c7a023          	sw	t3,0(a5)
     aa6:	0247ae03          	lw	t3,36(a5)
     aaa:	005e6e33          	or	t3,t3,t0
     aae:	03c7a223          	sw	t3,36(a5)
     ab2:	0008ae83          	lw	t4,0(a7)
     ab6:	4e01                	li	t3,0
     ab8:	067ea223          	sw	t2,100(t4)
     abc:	0607da03          	lhu	s4,96(a5)
     ac0:	034e0763          	beq	t3,s4,aee <BLE_CheckHoppingMap+0x17e>
     ac4:	0307ae03          	lw	t3,48(a5)
     ac8:	00068a03          	lb	s4,0(a3) # ffffd000 <_eusrstack+0xdffed000>
     acc:	00fe5e13          	srli	t3,t3,0xf
     ad0:	0e62                	slli	t3,t3,0x18
     ad2:	418e5e13          	srai	t3,t3,0x18
     ad6:	01ca5863          	bge	s4,t3,ae6 <BLE_CheckHoppingMap+0x176>
     ada:	0307ae03          	lw	t3,48(a5)
     ade:	00fe5e13          	srli	t3,t3,0xf
     ae2:	01c68023          	sb	t3,0(a3)
     ae6:	0607de03          	lhu	t3,96(a5)
     aea:	0ffe7e13          	andi	t3,t3,255
     aee:	064eaa03          	lw	s4,100(t4)
     af2:	000a0663          	beqz	s4,afe <BLE_CheckHoppingMap+0x18e>
     af6:	0587da03          	lhu	s4,88(a5)
     afa:	fb497fe3          	bgeu	s2,s4,ab8 <BLE_CheckHoppingMap+0x148>
     afe:	0247ae03          	lw	t3,36(a5)
     b02:	01ee7e33          	and	t3,t3,t5
     b06:	03c7a223          	sw	t3,36(a5)
     b0a:	00068783          	lb	a5,0(a3)
     b0e:	00f45c63          	bge	s0,a5,b26 <BLE_CheckHoppingMap+0x1b6>
     b12:	00034e03          	lbu	t3,0(t1)
     b16:	00c99633          	sll	a2,s3,a2
     b1a:	fff64613          	not	a2,a2
     b1e:	01c67633          	and	a2,a2,t3
     b22:	00c30023          	sb	a2,0(t1)
     b26:	863e                	mv	a2,a5
     b28:	00a7d363          	bge	a5,a0,b2e <BLE_CheckHoppingMap+0x1be>
     b2c:	862a                	mv	a2,a0
     b2e:	01861513          	slli	a0,a2,0x18
     b32:	8561                	srai	a0,a0,0x18
     b34:	0705                	addi	a4,a4,1
     b36:	0ff77713          	andi	a4,a4,255
     b3a:	0685                	addi	a3,a3,1
     b3c:	f3f713e3          	bne	a4,t6,a62 <BLE_CheckHoppingMap+0xf2>
     b40:	40b6                	lw	ra,76(sp)
     b42:	4426                	lw	s0,72(sp)
     b44:	4496                	lw	s1,68(sp)
     b46:	4906                	lw	s2,64(sp)
     b48:	59f2                	lw	s3,60(sp)
     b4a:	5a62                	lw	s4,56(sp)
     b4c:	6161                	addi	sp,sp,80
     b4e:	8082                	ret

00000b50 <LLE_IRQLibHandler>:
     b50:	20001697          	auipc	a3,0x20001
     b54:	21068693          	addi	a3,a3,528 # 20001d60 <gptrLLEReg>
     b58:	429c                	lw	a5,0(a3)
     b5a:	47d8                	lw	a4,12(a5)
     b5c:	01171613          	slli	a2,a4,0x11
     b60:	02065563          	bgez	a2,b8a <LLE_IRQLibHandler+0x3a>
     b64:	4798                	lw	a4,8(a5)
     b66:	01171613          	slli	a2,a4,0x11
     b6a:	02065063          	bgez	a2,b8a <LLE_IRQLibHandler+0x3a>
     b6e:	577d                	li	a4,-1
     b70:	d7b8                	sw	a4,104(a5)
     b72:	20001717          	auipc	a4,0x20001
     b76:	12670713          	addi	a4,a4,294 # 20001c98 <gTmosPara>
     b7a:	4f58                	lw	a4,28(a4)
     b7c:	0705                	addi	a4,a4,1
     b7e:	20001617          	auipc	a2,0x20001
     b82:	12e62b23          	sw	a4,310(a2) # 20001cb4 <gTmosPara+0x1c>
     b86:	6711                	lui	a4,0x4
     b88:	c798                	sw	a4,8(a5)
     b8a:	4798                	lw	a4,8(a5)
     b8c:	830d                	srli	a4,a4,0x3
     b8e:	8b05                	andi	a4,a4,1
     b90:	c31d                	beqz	a4,bb6 <LLE_IRQLibHandler+0x66>
     b92:	20001717          	auipc	a4,0x20001
     b96:	1b474703          	lbu	a4,436(a4) # 20001d46 <gBleIPPara+0x2>
     b9a:	00176713          	ori	a4,a4,1
     b9e:	20001617          	auipc	a2,0x20001
     ba2:	1ae60423          	sb	a4,424(a2) # 20001d46 <gBleIPPara+0x2>
     ba6:	f8000713          	li	a4,-128
     baa:	20001617          	auipc	a2,0x20001
     bae:	18e60f23          	sb	a4,414(a2) # 20001d48 <gBleIPPara+0x4>
     bb2:	4721                	li	a4,8
     bb4:	c798                	sw	a4,8(a5)
     bb6:	4798                	lw	a4,8(a5)
     bb8:	8b05                	andi	a4,a4,1
     bba:	cf09                	beqz	a4,bd4 <LLE_IRQLibHandler+0x84>
     bbc:	20001717          	auipc	a4,0x20001
     bc0:	18974703          	lbu	a4,393(a4) # 20001d45 <gBleIPPara+0x1>
     bc4:	00176713          	ori	a4,a4,1
     bc8:	20001617          	auipc	a2,0x20001
     bcc:	16e60ea3          	sb	a4,381(a2) # 20001d45 <gBleIPPara+0x1>
     bd0:	4705                	li	a4,1
     bd2:	c798                	sw	a4,8(a5)
     bd4:	4798                	lw	a4,8(a5)
     bd6:	8309                	srli	a4,a4,0x2
     bd8:	8b05                	andi	a4,a4,1
     bda:	e709                	bnez	a4,be4 <LLE_IRQLibHandler+0x94>
     bdc:	4798                	lw	a4,8(a5)
     bde:	8305                	srli	a4,a4,0x1
     be0:	8b05                	andi	a4,a4,1
     be2:	cf21                	beqz	a4,c3a <LLE_IRQLibHandler+0xea>
     be4:	4798                	lw	a4,8(a5)
     be6:	20001617          	auipc	a2,0x20001
     bea:	15e60613          	addi	a2,a2,350 # 20001d44 <gBleIPPara>
     bee:	20001517          	auipc	a0,0x20001
     bf2:	14e50513          	addi	a0,a0,334 # 20001d3c <gptrBBReg>
     bf6:	8309                	srli	a4,a4,0x2
     bf8:	8b05                	andi	a4,a4,1
     bfa:	10070163          	beqz	a4,cfc <LLE_IRQLibHandler+0x1ac>
     bfe:	4118                	lw	a4,0(a0)
     c00:	4318                	lw	a4,0(a4)
     c02:	8331                	srli	a4,a4,0xc
     c04:	8b0d                	andi	a4,a4,3
     c06:	eb65                	bnez	a4,cf6 <LLE_IRQLibHandler+0x1a6>
     c08:	4bac                	lw	a1,80(a5)
     c0a:	4e18                	lw	a4,24(a2)
     c0c:	0205f593          	andi	a1,a1,32
     c10:	3318                	lbu	a4,1(a4)
     c12:	cdc5                	beqz	a1,cca <LLE_IRQLibHandler+0x17a>
     c14:	ef71                	bnez	a4,cf0 <LLE_IRQLibHandler+0x1a0>
     c16:	05d00713          	li	a4,93
     c1a:	cfd8                	sw	a4,28(a5)
     c1c:	2218                	lbu	a4,0(a2)
     c1e:	00176713          	ori	a4,a4,1
     c22:	20001617          	auipc	a2,0x20001
     c26:	12e60123          	sb	a4,290(a2) # 20001d44 <gBleIPPara>
     c2a:	4711                	li	a4,4
     c2c:	c798                	sw	a4,8(a5)
     c2e:	4118                	lw	a4,0(a0)
     c30:	575c                	lw	a5,44(a4)
     c32:	9bf1                	andi	a5,a5,-4
     c34:	0017e793          	ori	a5,a5,1
     c38:	d75c                	sw	a5,44(a4)
     c3a:	429c                	lw	a5,0(a3)
     c3c:	4798                	lw	a4,8(a5)
     c3e:	01371693          	slli	a3,a4,0x13
     c42:	0206d663          	bgez	a3,c6e <LLE_IRQLibHandler+0x11e>
     c46:	20001697          	auipc	a3,0x20001
     c4a:	1ea6c683          	lbu	a3,490(a3) # 20001e30 <gBleLlPara+0x70>
     c4e:	8ac1                	andi	a3,a3,16
     c50:	20001717          	auipc	a4,0x20001
     c54:	17070713          	addi	a4,a4,368 # 20001dc0 <gBleLlPara>
     c58:	cadd                	beqz	a3,d0e <LLE_IRQLibHandler+0x1be>
     c5a:	07074703          	lbu	a4,112(a4)
     c5e:	02076713          	ori	a4,a4,32
     c62:	20001697          	auipc	a3,0x20001
     c66:	1ce68723          	sb	a4,462(a3) # 20001e30 <gBleLlPara+0x70>
     c6a:	6705                	lui	a4,0x1
     c6c:	c798                	sw	a4,8(a5)
     c6e:	4798                	lw	a4,8(a5)
     c70:	01271693          	slli	a3,a4,0x12
     c74:	0206d163          	bgez	a3,c96 <LLE_IRQLibHandler+0x146>
     c78:	20001717          	auipc	a4,0x20001
     c7c:	0d074703          	lbu	a4,208(a4) # 20001d48 <gBleIPPara+0x4>
     c80:	0762                	slli	a4,a4,0x18
     c82:	8761                	srai	a4,a4,0x18
     c84:	00075763          	bgez	a4,c92 <LLE_IRQLibHandler+0x142>
     c88:	4705                	li	a4,1
     c8a:	20001697          	auipc	a3,0x20001
     c8e:	0ae68f23          	sb	a4,190(a3) # 20001d48 <gBleIPPara+0x4>
     c92:	6709                	lui	a4,0x2
     c94:	c798                	sw	a4,8(a5)
     c96:	4798                	lw	a4,8(a5)
     c98:	01071693          	slli	a3,a4,0x10
     c9c:	0206d663          	bgez	a3,cc8 <LLE_IRQLibHandler+0x178>
     ca0:	20001697          	auipc	a3,0x20001
     ca4:	1916c683          	lbu	a3,401(a3) # 20001e31 <gBleLlPara+0x71>
     ca8:	8a85                	andi	a3,a3,1
     caa:	20001717          	auipc	a4,0x20001
     cae:	11670713          	addi	a4,a4,278 # 20001dc0 <gBleLlPara>
     cb2:	cea5                	beqz	a3,d2a <LLE_IRQLibHandler+0x1da>
     cb4:	07174703          	lbu	a4,113(a4)
     cb8:	00276713          	ori	a4,a4,2
     cbc:	20001697          	auipc	a3,0x20001
     cc0:	16e68aa3          	sb	a4,373(a3) # 20001e31 <gBleLlPara+0x71>
     cc4:	6721                	lui	a4,0x8
     cc6:	c798                	sw	a4,8(a5)
     cc8:	8082                	ret
     cca:	d731                	beqz	a4,c16 <LLE_IRQLibHandler+0xc6>
     ccc:	4585                	li	a1,1
     cce:	00b71563          	bne	a4,a1,cd8 <LLE_IRQLibHandler+0x188>
     cd2:	06100713          	li	a4,97
     cd6:	b791                	j	c1a <LLE_IRQLibHandler+0xca>
     cd8:	4589                	li	a1,2
     cda:	00b71563          	bne	a4,a1,ce4 <LLE_IRQLibHandler+0x194>
     cde:	06500713          	li	a4,101
     ce2:	bf25                	j	c1a <LLE_IRQLibHandler+0xca>
     ce4:	458d                	li	a1,3
     ce6:	00b71563          	bne	a4,a1,cf0 <LLE_IRQLibHandler+0x1a0>
     cea:	06900713          	li	a4,105
     cee:	b735                	j	c1a <LLE_IRQLibHandler+0xca>
     cf0:	06b00713          	li	a4,107
     cf4:	b71d                	j	c1a <LLE_IRQLibHandler+0xca>
     cf6:	06c00713          	li	a4,108
     cfa:	b705                	j	c1a <LLE_IRQLibHandler+0xca>
     cfc:	3238                	lbu	a4,3(a2)
     cfe:	00176713          	ori	a4,a4,1
     d02:	20001617          	auipc	a2,0x20001
     d06:	04e602a3          	sb	a4,69(a2) # 20001d47 <gBleIPPara+0x3>
     d0a:	4709                	li	a4,2
     d0c:	b705                	j	c2c <LLE_IRQLibHandler+0xdc>
     d0e:	07074683          	lbu	a3,112(a4) # 8070 <_data_lma+0x216c>
     d12:	4609                	li	a2,2
     d14:	8abd                	andi	a3,a3,15
     d16:	00c68863          	beq	a3,a2,d26 <LLE_IRQLibHandler+0x1d6>
     d1a:	07074703          	lbu	a4,112(a4)
     d1e:	468d                	li	a3,3
     d20:	8b3d                	andi	a4,a4,15
     d22:	f4d714e3          	bne	a4,a3,c6a <LLE_IRQLibHandler+0x11a>
     d26:	4711                	li	a4,4
     d28:	bf2d                	j	c62 <LLE_IRQLibHandler+0x112>
     d2a:	07174683          	lbu	a3,113(a4)
     d2e:	8a91                	andi	a3,a3,4
     d30:	dad1                	beqz	a3,cc4 <LLE_IRQLibHandler+0x174>
     d32:	07174703          	lbu	a4,113(a4)
     d36:	00876713          	ori	a4,a4,8
     d3a:	b749                	j	cbc <LLE_IRQLibHandler+0x16c>

00000d3c <RF_HopGetChannel>:
     d3c:	20001717          	auipc	a4,0x20001
     d40:	02870713          	addi	a4,a4,40 # 20001d64 <rfConfig>
     d44:	3f34                	lbu	a3,27(a4)
     d46:	20001797          	auipc	a5,0x20001
     d4a:	04b7c783          	lbu	a5,75(a5) # 20001d91 <rfInfo+0xd>
     d4e:	97b6                	add	a5,a5,a3
     d50:	0ff7f793          	andi	a5,a5,255
     d54:	46fd                	li	a3,31
     d56:	04f6ea63          	bltu	a3,a5,daa <RF_HopGetChannel+0x6e>
     d5a:	4b4c                	lw	a1,20(a4)
     d5c:	20001697          	auipc	a3,0x20001
     d60:	00f684a3          	sb	a5,9(a3) # 20001d65 <rfConfig+0x1>
     d64:	20001797          	auipc	a5,0x20001
     d68:	0017c783          	lbu	a5,1(a5) # 20001d65 <rfConfig+0x1>
     d6c:	4705                	li	a4,1
     d6e:	00f71733          	sll	a4,a4,a5
     d72:	20001697          	auipc	a3,0x20001
     d76:	00f68fa3          	sb	a5,31(a3) # 20001d91 <rfInfo+0xd>
     d7a:	8f6d                	and	a4,a4,a1
     d7c:	ef1d                	bnez	a4,dba <RF_HopGetChannel+0x7e>
     d7e:	20001697          	auipc	a3,0x20001
     d82:	0176c683          	lbu	a3,23(a3) # 20001d95 <rfInfo+0x11>
     d86:	02d7f6b3          	remu	a3,a5,a3
     d8a:	02000513          	li	a0,32
     d8e:	4781                	li	a5,0
     d90:	00f5d633          	srl	a2,a1,a5
     d94:	8a05                	andi	a2,a2,1
     d96:	0ff7f813          	andi	a6,a5,255
     d9a:	ce09                	beqz	a2,db4 <RF_HopGetChannel+0x78>
     d9c:	00e69963          	bne	a3,a4,dae <RF_HopGetChannel+0x72>
     da0:	20001797          	auipc	a5,0x20001
     da4:	fd0782a3          	sb	a6,-59(a5) # 20001d65 <rfConfig+0x1>
     da8:	8082                	ret
     daa:	1781                	addi	a5,a5,-32
     dac:	b77d                	j	d5a <RF_HopGetChannel+0x1e>
     dae:	0705                	addi	a4,a4,1
     db0:	0ff77713          	andi	a4,a4,255
     db4:	0785                	addi	a5,a5,1
     db6:	fca79de3          	bne	a5,a0,d90 <RF_HopGetChannel+0x54>
     dba:	8082                	ret

00000dbc <RF_FrequencyHoppingGet>:
     dbc:	20001797          	auipc	a5,0x20001
     dc0:	f7878793          	addi	a5,a5,-136 # 20001d34 <fnGetClockCBs>
     dc4:	439c                	lw	a5,0(a5)
     dc6:	1141                	addi	sp,sp,-16
     dc8:	c422                	sw	s0,8(sp)
     dca:	c04a                	sw	s2,0(sp)
     dcc:	c606                	sw	ra,12(sp)
     dce:	c226                	sw	s1,4(sp)
     dd0:	9782                	jalr	a5
     dd2:	20001797          	auipc	a5,0x20001
     dd6:	fb278793          	addi	a5,a5,-78 # 20001d84 <rfInfo>
     dda:	4780                	lw	s0,8(a5)
     ddc:	4901                	li	s2,0
     dde:	04a40163          	beq	s0,a0,e20 <RF_FrequencyHoppingGet+0x64>
     de2:	8d01                	sub	a0,a0,s0
     de4:	84be                	mv	s1,a5
     de6:	00555413          	srli	s0,a0,0x5
     dea:	20001797          	auipc	a5,0x20001
     dee:	f947c783          	lbu	a5,-108(a5) # 20001d7e <rfConfig+0x1a>
     df2:	01f57913          	andi	s2,a0,31
     df6:	02f46263          	bltu	s0,a5,e1a <RF_FrequencyHoppingGet+0x5e>
     dfa:	3789                	jal	d3c <RF_HopGetChannel>
     dfc:	4494                	lw	a3,8(s1)
     dfe:	20001717          	auipc	a4,0x20001
     e02:	f8074703          	lbu	a4,-128(a4) # 20001d7e <rfConfig+0x1a>
     e06:	00571793          	slli	a5,a4,0x5
     e0a:	96be                	add	a3,a3,a5
     e0c:	8c19                	sub	s0,s0,a4
     e0e:	20001797          	auipc	a5,0x20001
     e12:	f6d7af23          	sw	a3,-130(a5) # 20001d8c <rfInfo+0x8>
     e16:	fee472e3          	bgeu	s0,a4,dfa <RF_FrequencyHoppingGet+0x3e>
     e1a:	0416                	slli	s0,s0,0x5
     e1c:	01246933          	or	s2,s0,s2
     e20:	40b2                	lw	ra,12(sp)
     e22:	4422                	lw	s0,8(sp)
     e24:	854a                	mv	a0,s2
     e26:	4492                	lw	s1,4(sp)
     e28:	4902                	lw	s2,0(sp)
     e2a:	0141                	addi	sp,sp,16
     e2c:	8082                	ret

00000e2e <RF_FrequencyHoppingChange>:
     e2e:	20001797          	auipc	a5,0x20001
     e32:	f0678793          	addi	a5,a5,-250 # 20001d34 <fnGetClockCBs>
     e36:	439c                	lw	a5,0(a5)
     e38:	1141                	addi	sp,sp,-16
     e3a:	c422                	sw	s0,8(sp)
     e3c:	c606                	sw	ra,12(sp)
     e3e:	c226                	sw	s1,4(sp)
     e40:	9782                	jalr	a5
     e42:	20001797          	auipc	a5,0x20001
     e46:	f4278793          	addi	a5,a5,-190 # 20001d84 <rfInfo>
     e4a:	4780                	lw	s0,8(a5)
     e4c:	04a40763          	beq	s0,a0,e9a <RF_FrequencyHoppingChange+0x6c>
     e50:	8d01                	sub	a0,a0,s0
     e52:	84be                	mv	s1,a5
     e54:	00555413          	srli	s0,a0,0x5
     e58:	20001797          	auipc	a5,0x20001
     e5c:	f267c783          	lbu	a5,-218(a5) # 20001d7e <rfConfig+0x1a>
     e60:	02f46d63          	bltu	s0,a5,e9a <RF_FrequencyHoppingChange+0x6c>
     e64:	3de1                	jal	d3c <RF_HopGetChannel>
     e66:	4498                	lw	a4,8(s1)
     e68:	20001797          	auipc	a5,0x20001
     e6c:	f167c783          	lbu	a5,-234(a5) # 20001d7e <rfConfig+0x1a>
     e70:	00579693          	slli	a3,a5,0x5
     e74:	9736                	add	a4,a4,a3
     e76:	8c1d                	sub	s0,s0,a5
     e78:	20001697          	auipc	a3,0x20001
     e7c:	f0e6aa23          	sw	a4,-236(a3) # 20001d8c <rfInfo+0x8>
     e80:	fef472e3          	bgeu	s0,a5,e64 <RF_FrequencyHoppingChange+0x36>
     e84:	4422                	lw	s0,8(sp)
     e86:	40b2                	lw	ra,12(sp)
     e88:	4492                	lw	s1,4(sp)
     e8a:	20001517          	auipc	a0,0x20001
     e8e:	edb54503          	lbu	a0,-293(a0) # 20001d65 <rfConfig+0x1>
     e92:	4581                	li	a1,0
     e94:	0141                	addi	sp,sp,16
     e96:	3040206f          	j	319a <RF_DevSetChannel>
     e9a:	40b2                	lw	ra,12(sp)
     e9c:	4422                	lw	s0,8(sp)
     e9e:	4492                	lw	s1,4(sp)
     ea0:	0141                	addi	sp,sp,16
     ea2:	8082                	ret

00000ea4 <RFEND_WaitTune>:
     ea4:	20001797          	auipc	a5,0x20001
     ea8:	f0878793          	addi	a5,a5,-248 # 20001dac <gptrRFENDReg>
     eac:	4398                	lw	a4,0(a5)
     eae:	000257b7          	lui	a5,0x25
     eb2:	9f078793          	addi	a5,a5,-1552 # 249f0 <_data_lma+0x1eaec>
     eb6:	09072683          	lw	a3,144(a4)
     eba:	00569613          	slli	a2,a3,0x5
     ebe:	00065863          	bgez	a2,ece <RFEND_WaitTune+0x2a>
     ec2:	09072683          	lw	a3,144(a4)
     ec6:	00669613          	slli	a2,a3,0x6
     eca:	00064463          	bltz	a2,ed2 <RFEND_WaitTune+0x2e>
     ece:	17fd                	addi	a5,a5,-1
     ed0:	f3fd                	bnez	a5,eb6 <RFEND_WaitTune+0x12>
     ed2:	8082                	ret

00000ed4 <tmos_memory_allocate>:
     ed4:	c169                	beqz	a0,f96 <tmos_memory_allocate+0xc2>
     ed6:	87aa                	mv	a5,a0
     ed8:	4501                	li	a0,0
     eda:	c1e1                	beqz	a1,f9a <tmos_memory_allocate+0xc6>
     edc:	078d                	addi	a5,a5,3
     ede:	07c2                	slli	a5,a5,0x10
     ee0:	83c1                	srli	a5,a5,0x10
     ee2:	9bf1                	andi	a5,a5,-4
     ee4:	07c2                	slli	a5,a5,0x10
     ee6:	83c1                	srli	a5,a5,0x10
     ee8:	03400713          	li	a4,52
     eec:	02f76f63          	bltu	a4,a5,f2a <tmos_memory_allocate+0x56>
     ef0:	20001717          	auipc	a4,0x20001
     ef4:	ecc70713          	addi	a4,a4,-308 # 20001dbc <MemCtlStart>
     ef8:	4308                	lw	a0,0(a4)
     efa:	20001717          	auipc	a4,0x20001
     efe:	eba70713          	addi	a4,a4,-326 # 20001db4 <MemCtlEnd>
     f02:	4314                	lw	a3,0(a4)
     f04:	02a69863          	bne	a3,a0,f34 <tmos_memory_allocate+0x60>
     f08:	20001717          	auipc	a4,0x20001
     f0c:	de470713          	addi	a4,a4,-540 # 20001cec <ble>
     f10:	5b58                	lw	a4,52(a4)
     f12:	4501                	li	a0,0
     f14:	c359                	beqz	a4,f9a <tmos_memory_allocate+0xc6>
     f16:	1141                	addi	sp,sp,-16
     f18:	07c2                	slli	a5,a5,0x10
     f1a:	c606                	sw	ra,12(sp)
     f1c:	4505                	li	a0,1
     f1e:	8ddd                	or	a1,a1,a5
     f20:	9702                	jalr	a4
     f22:	40b2                	lw	ra,12(sp)
     f24:	4501                	li	a0,0
     f26:	0141                	addi	sp,sp,16
     f28:	8082                	ret
     f2a:	20001717          	auipc	a4,0x20001
     f2e:	e8e70713          	addi	a4,a4,-370 # 20001db8 <MemCtlPartition>
     f32:	b7d9                	j	ef8 <tmos_memory_allocate+0x24>
     f34:	217a                	lhu	a4,6(a0)
     f36:	ef31                	bnez	a4,f92 <tmos_memory_allocate+0xbe>
     f38:	215a                	lhu	a4,4(a0)
     f3a:	04f76c63          	bltu	a4,a5,f92 <tmos_memory_allocate+0xbe>
     f3e:	40f706b3          	sub	a3,a4,a5
     f42:	4621                	li	a2,8
     f44:	02d67a63          	bgeu	a2,a3,f78 <tmos_memory_allocate+0xa4>
     f48:	00052803          	lw	a6,0(a0)
     f4c:	00878693          	addi	a3,a5,8
     f50:	8f1d                	sub	a4,a4,a5
     f52:	96aa                	add	a3,a3,a0
     f54:	1761                	addi	a4,a4,-8
     f56:	20001617          	auipc	a2,0x20001
     f5a:	d4865603          	lhu	a2,-696(a2) # 20001c9e <gTmosPara+0x6>
     f5e:	a2da                	sh	a4,4(a3)
     f60:	0106a023          	sw	a6,0(a3)
     f64:	00069323          	sh	zero,6(a3)
     f68:	c114                	sw	a3,0(a0)
     f6a:	a15e                	sh	a5,4(a0)
     f6c:	ff860713          	addi	a4,a2,-8
     f70:	20001697          	auipc	a3,0x20001
     f74:	d2e69723          	sh	a4,-722(a3) # 20001c9e <gTmosPara+0x6>
     f78:	a16e                	sh	a1,6(a0)
     f7a:	20001597          	auipc	a1,0x20001
     f7e:	d245d583          	lhu	a1,-732(a1) # 20001c9e <gTmosPara+0x6>
     f82:	40f587b3          	sub	a5,a1,a5
     f86:	20001717          	auipc	a4,0x20001
     f8a:	d0f71c23          	sh	a5,-744(a4) # 20001c9e <gTmosPara+0x6>
     f8e:	0521                	addi	a0,a0,8
     f90:	8082                	ret
     f92:	4108                	lw	a0,0(a0)
     f94:	bf85                	j	f04 <tmos_memory_allocate+0x30>
     f96:	4501                	li	a0,0
     f98:	8082                	ret
     f9a:	8082                	ret

00000f9c <tmos_memory_free>:
     f9c:	c10d                	beqz	a0,fbe <tmos_memory_free+0x22>
     f9e:	20001797          	auipc	a5,0x20001
     fa2:	e1e78793          	addi	a5,a5,-482 # 20001dbc <MemCtlStart>
     fa6:	0007a303          	lw	t1,0(a5)
     faa:	20001797          	auipc	a5,0x20001
     fae:	e0a78793          	addi	a5,a5,-502 # 20001db4 <MemCtlEnd>
     fb2:	0007a883          	lw	a7,0(a5)
     fb6:	4681                	li	a3,0
     fb8:	879a                	mv	a5,t1
     fba:	0117e363          	bltu	a5,a7,fc0 <tmos_memory_free+0x24>
     fbe:	8082                	ret
     fc0:	0007a803          	lw	a6,0(a5)
     fc4:	0af56263          	bltu	a0,a5,1068 <tmos_memory_free+0xcc>
     fc8:	0aa86063          	bltu	a6,a0,1068 <tmos_memory_free+0xcc>
     fcc:	00878713          	addi	a4,a5,8
     fd0:	fee567e3          	bltu	a0,a4,fbe <tmos_memory_free+0x22>
     fd4:	23f2                	lhu	a2,6(a5)
     fd6:	6721                	lui	a4,0x8
     fd8:	0705                	addi	a4,a4,1
     fda:	00e61763          	bne	a2,a4,fe8 <tmos_memory_free+0x4c>
     fde:	8181c703          	lbu	a4,-2024(gp) # 20000088 <l2capNumRecvDataPkts>
     fe2:	0705                	addi	a4,a4,1
     fe4:	80e18c23          	sb	a4,-2024(gp) # 20000088 <l2capNumRecvDataPkts>
     fe8:	20001597          	auipc	a1,0x20001
     fec:	cb058593          	addi	a1,a1,-848 # 20001c98 <gTmosPara>
     ff0:	23d2                	lhu	a2,4(a5)
     ff2:	21fa                	lhu	a4,6(a1)
     ff4:	00079323          	sh	zero,6(a5)
     ff8:	9732                	add	a4,a4,a2
     ffa:	0742                	slli	a4,a4,0x10
     ffc:	8341                	srli	a4,a4,0x10
     ffe:	20001517          	auipc	a0,0x20001
    1002:	cae51023          	sh	a4,-864(a0) # 20001c9e <gTmosPara+0x6>
    1006:	02678763          	beq	a5,t1,1034 <tmos_memory_free+0x98>
    100a:	20001517          	auipc	a0,0x20001
    100e:	dae50513          	addi	a0,a0,-594 # 20001db8 <MemCtlPartition>
    1012:	4108                	lw	a0,0(a0)
    1014:	02f50063          	beq	a0,a5,1034 <tmos_memory_free+0x98>
    1018:	22ea                	lhu	a0,6(a3)
    101a:	ed09                	bnez	a0,1034 <tmos_memory_free+0x98>
    101c:	22de                	lhu	a5,4(a3)
    101e:	0106a023          	sw	a6,0(a3)
    1022:	0721                	addi	a4,a4,8
    1024:	963e                	add	a2,a2,a5
    1026:	0621                	addi	a2,a2,8
    1028:	a2d2                	sh	a2,4(a3)
    102a:	20001797          	auipc	a5,0x20001
    102e:	c6e79a23          	sh	a4,-908(a5) # 20001c9e <gTmosPara+0x6>
    1032:	87b6                	mv	a5,a3
    1034:	4398                	lw	a4,0(a5)
    1036:	f91704e3          	beq	a4,a7,fbe <tmos_memory_free+0x22>
    103a:	20001697          	auipc	a3,0x20001
    103e:	d7e68693          	addi	a3,a3,-642 # 20001db8 <MemCtlPartition>
    1042:	4294                	lw	a3,0(a3)
    1044:	f6d70de3          	beq	a4,a3,fbe <tmos_memory_free+0x22>
    1048:	2376                	lhu	a3,6(a4)
    104a:	fab5                	bnez	a3,fbe <tmos_memory_free+0x22>
    104c:	23d6                	lhu	a3,4(a5)
    104e:	2352                	lhu	a2,4(a4)
    1050:	4318                	lw	a4,0(a4)
    1052:	06a1                	addi	a3,a3,8
    1054:	96b2                	add	a3,a3,a2
    1056:	a3d6                	sh	a3,4(a5)
    1058:	c398                	sw	a4,0(a5)
    105a:	21fe                	lhu	a5,6(a1)
    105c:	07a1                	addi	a5,a5,8
    105e:	20001717          	auipc	a4,0x20001
    1062:	c4f71023          	sh	a5,-960(a4) # 20001c9e <gTmosPara+0x6>
    1066:	8082                	ret
    1068:	86be                	mv	a3,a5
    106a:	87c2                	mv	a5,a6
    106c:	b7b9                	j	fba <tmos_memory_free+0x1e>

0000106e <tmos_bm_adjust_header>:
    106e:	20001797          	auipc	a5,0x20001
    1072:	d4e78793          	addi	a5,a5,-690 # 20001dbc <MemCtlStart>
    1076:	20001697          	auipc	a3,0x20001
    107a:	d3e68693          	addi	a3,a3,-706 # 20001db4 <MemCtlEnd>
    107e:	439c                	lw	a5,0(a5)
    1080:	4290                	lw	a2,0(a3)
    1082:	872a                	mv	a4,a0
    1084:	40b505b3          	sub	a1,a0,a1
    1088:	00f61463          	bne	a2,a5,1090 <tmos_bm_adjust_header+0x22>
    108c:	853a                	mv	a0,a4
    108e:	a829                	j	10a8 <tmos_bm_adjust_header+0x3a>
    1090:	00878693          	addi	a3,a5,8
    1094:	439c                	lw	a5,0(a5)
    1096:	fed769e3          	bltu	a4,a3,1088 <tmos_bm_adjust_header+0x1a>
    109a:	fef777e3          	bgeu	a4,a5,1088 <tmos_bm_adjust_header+0x1a>
    109e:	852e                	mv	a0,a1
    10a0:	fed5e4e3          	bltu	a1,a3,1088 <tmos_bm_adjust_header+0x1a>
    10a4:	fef5f2e3          	bgeu	a1,a5,1088 <tmos_bm_adjust_header+0x1a>
    10a8:	8082                	ret
	...

Disassembly of section .text:

000010ac <Ecall_M_Mode_Handler-0x4>:
    10ac:	a001                	j	10ac <tmos_bm_adjust_header+0x3e>
    10ae:	a001                	j	10ae <tmos_bm_adjust_header+0x40>

000010b0 <Ecall_M_Mode_Handler>:
    10b0:	a001                	j	10b0 <Ecall_M_Mode_Handler>

000010b2 <Ecall_U_Mode_Handler>:
    10b2:	a001                	j	10b2 <Ecall_U_Mode_Handler>

000010b4 <Break_Point_Handler>:
    10b4:	a001                	j	10b4 <Break_Point_Handler>

000010b6 <SysTick_Handler>:
    10b6:	a001                	j	10b6 <SysTick_Handler>

000010b8 <SW_Handler>:
    10b8:	a001                	j	10b8 <SW_Handler>

000010ba <WWDG_IRQHandler>:
    10ba:	a001                	j	10ba <WWDG_IRQHandler>

000010bc <PVD_IRQHandler>:
    10bc:	a001                	j	10bc <PVD_IRQHandler>

000010be <TAMPER_IRQHandler>:
    10be:	a001                	j	10be <TAMPER_IRQHandler>

000010c0 <RTC_IRQHandler>:
    10c0:	a001                	j	10c0 <RTC_IRQHandler>

000010c2 <FLASH_IRQHandler>:
    10c2:	a001                	j	10c2 <FLASH_IRQHandler>

000010c4 <RCC_IRQHandler>:
    10c4:	a001                	j	10c4 <RCC_IRQHandler>

000010c6 <EXTI0_IRQHandler>:
    10c6:	a001                	j	10c6 <EXTI0_IRQHandler>

000010c8 <EXTI1_IRQHandler>:
    10c8:	a001                	j	10c8 <EXTI1_IRQHandler>

000010ca <EXTI2_IRQHandler>:
    10ca:	a001                	j	10ca <EXTI2_IRQHandler>

000010cc <EXTI3_IRQHandler>:
    10cc:	a001                	j	10cc <EXTI3_IRQHandler>

000010ce <EXTI4_IRQHandler>:
    10ce:	a001                	j	10ce <EXTI4_IRQHandler>

000010d0 <DMA1_Channel1_IRQHandler>:
    10d0:	a001                	j	10d0 <DMA1_Channel1_IRQHandler>

000010d2 <DMA1_Channel2_IRQHandler>:
    10d2:	a001                	j	10d2 <DMA1_Channel2_IRQHandler>

000010d4 <DMA1_Channel3_IRQHandler>:
    10d4:	a001                	j	10d4 <DMA1_Channel3_IRQHandler>

000010d6 <DMA1_Channel4_IRQHandler>:
    10d6:	a001                	j	10d6 <DMA1_Channel4_IRQHandler>

000010d8 <DMA1_Channel5_IRQHandler>:
    10d8:	a001                	j	10d8 <DMA1_Channel5_IRQHandler>

000010da <DMA1_Channel6_IRQHandler>:
    10da:	a001                	j	10da <DMA1_Channel6_IRQHandler>

000010dc <DMA1_Channel7_IRQHandler>:
    10dc:	a001                	j	10dc <DMA1_Channel7_IRQHandler>

000010de <ADC1_2_IRQHandler>:
    10de:	a001                	j	10de <ADC1_2_IRQHandler>

000010e0 <USB_HP_CAN1_TX_IRQHandler>:
    10e0:	a001                	j	10e0 <USB_HP_CAN1_TX_IRQHandler>

000010e2 <USB_LP_CAN1_RX0_IRQHandler>:
    10e2:	a001                	j	10e2 <USB_LP_CAN1_RX0_IRQHandler>

000010e4 <CAN1_RX1_IRQHandler>:
    10e4:	a001                	j	10e4 <CAN1_RX1_IRQHandler>

000010e6 <CAN1_SCE_IRQHandler>:
    10e6:	a001                	j	10e6 <CAN1_SCE_IRQHandler>

000010e8 <EXTI9_5_IRQHandler>:
    10e8:	a001                	j	10e8 <EXTI9_5_IRQHandler>

000010ea <TIM1_BRK_IRQHandler>:
    10ea:	a001                	j	10ea <TIM1_BRK_IRQHandler>

000010ec <TIM1_UP_IRQHandler>:
    10ec:	a001                	j	10ec <TIM1_UP_IRQHandler>

000010ee <TIM1_TRG_COM_IRQHandler>:
    10ee:	a001                	j	10ee <TIM1_TRG_COM_IRQHandler>

000010f0 <TIM1_CC_IRQHandler>:
    10f0:	a001                	j	10f0 <TIM1_CC_IRQHandler>

000010f2 <TIM2_IRQHandler>:
    10f2:	a001                	j	10f2 <TIM2_IRQHandler>

000010f4 <TIM3_IRQHandler>:
    10f4:	a001                	j	10f4 <TIM3_IRQHandler>

000010f6 <TIM4_IRQHandler>:
    10f6:	a001                	j	10f6 <TIM4_IRQHandler>

000010f8 <I2C1_EV_IRQHandler>:
    10f8:	a001                	j	10f8 <I2C1_EV_IRQHandler>

000010fa <I2C1_ER_IRQHandler>:
    10fa:	a001                	j	10fa <I2C1_ER_IRQHandler>

000010fc <I2C2_EV_IRQHandler>:
    10fc:	a001                	j	10fc <I2C2_EV_IRQHandler>

000010fe <I2C2_ER_IRQHandler>:
    10fe:	a001                	j	10fe <I2C2_ER_IRQHandler>

00001100 <SPI1_IRQHandler>:
    1100:	a001                	j	1100 <SPI1_IRQHandler>

00001102 <SPI2_IRQHandler>:
    1102:	a001                	j	1102 <SPI2_IRQHandler>

00001104 <USART1_IRQHandler>:
    1104:	a001                	j	1104 <USART1_IRQHandler>

00001106 <USART2_IRQHandler>:
    1106:	a001                	j	1106 <USART2_IRQHandler>

00001108 <USART3_IRQHandler>:
    1108:	a001                	j	1108 <USART3_IRQHandler>

0000110a <EXTI15_10_IRQHandler>:
    110a:	a001                	j	110a <EXTI15_10_IRQHandler>
    110c:	a001                	j	110c <EXTI15_10_IRQHandler+0x2>

0000110e <USBWakeUp_IRQHandler>:
    110e:	a001                	j	110e <USBWakeUp_IRQHandler>

00001110 <USBHD_IRQHandler>:
    1110:	a001                	j	1110 <USBHD_IRQHandler>

00001112 <USBHDWakeUp_IRQHandler>:
    1112:	a001                	j	1112 <USBHDWakeUp_IRQHandler>

00001114 <ETH_IRQHandler>:
    1114:	a001                	j	1114 <ETH_IRQHandler>

00001116 <ETHWakeUp_IRQHandler>:
    1116:	a001                	j	1116 <ETHWakeUp_IRQHandler>
    1118:	a001                	j	1118 <ETHWakeUp_IRQHandler+0x2>
    111a:	a001                	j	111a <ETHWakeUp_IRQHandler+0x4>

0000111c <TIM5_IRQHandler>:
    111c:	a001                	j	111c <TIM5_IRQHandler>

0000111e <UART4_IRQHandler>:
    111e:	a001                	j	111e <UART4_IRQHandler>

00001120 <DMA1_Channel8_IRQHandler>:
    1120:	a001                	j	1120 <DMA1_Channel8_IRQHandler>

00001122 <OSC32KCal_IRQHandler>:
    1122:	a001                	j	1122 <OSC32KCal_IRQHandler>

00001124 <OSCWakeUp_IRQHandler>:
    1124:	a001                	j	1124 <OSCWakeUp_IRQHandler>

00001126 <handle_reset>:
    1126:	1ffff197          	auipc	gp,0x1ffff
    112a:	74a18193          	addi	gp,gp,1866 # 20000870 <__global_pointer$>
    112e:	2000f117          	auipc	sp,0x2000f
    1132:	ed210113          	addi	sp,sp,-302 # 20010000 <_eusrstack>
    1136:	00005517          	auipc	a0,0x5
    113a:	dce50513          	addi	a0,a0,-562 # 5f04 <_data_lma>
    113e:	1ffff597          	auipc	a1,0x1ffff
    1142:	ec258593          	addi	a1,a1,-318 # 20000000 <_data_vma>
    1146:	81018613          	addi	a2,gp,-2032 # 20000080 <_edata>
    114a:	00c5fa63          	bgeu	a1,a2,115e <handle_reset+0x38>
    114e:	00052283          	lw	t0,0(a0)
    1152:	0055a023          	sw	t0,0(a1)
    1156:	0511                	addi	a0,a0,4
    1158:	0591                	addi	a1,a1,4
    115a:	fec5eae3          	bltu	a1,a2,114e <handle_reset+0x28>
    115e:	81018513          	addi	a0,gp,-2032 # 20000080 <_edata>
    1162:	20001597          	auipc	a1,0x20001
    1166:	d7a58593          	addi	a1,a1,-646 # 20001edc <_ebss>
    116a:	00b57763          	bgeu	a0,a1,1178 <handle_reset+0x52>
    116e:	00052023          	sw	zero,0(a0)
    1172:	0511                	addi	a0,a0,4
    1174:	feb56de3          	bltu	a0,a1,116e <handle_reset+0x48>
    1178:	42fd                	li	t0,31
    117a:	bc029073          	csrw	0xbc0,t0
    117e:	428d                	li	t0,3
    1180:	80429073          	csrw	0x804,t0
    1184:	08800293          	li	t0,136
    1188:	3002a073          	csrs	mstatus,t0
    118c:	fffff297          	auipc	t0,0xfffff
    1190:	eac28293          	addi	t0,t0,-340 # 38 <_einit>
    1194:	0032e293          	ori	t0,t0,3
    1198:	30529073          	csrw	mtvec,t0
    119c:	7db000ef          	jal	ra,2176 <SystemInit>
    11a0:	00001297          	auipc	t0,0x1
    11a4:	fb628293          	addi	t0,t0,-74 # 2156 <main>
    11a8:	34129073          	csrw	mepc,t0
    11ac:	30200073          	mret

000011b0 <ADC_DeInit>:
    11b0:	06b032ef          	jal	t0,4a1a <__riscv_save_0>
    11b4:	400127b7          	lui	a5,0x40012
    11b8:	40078793          	addi	a5,a5,1024 # 40012400 <_eusrstack+0x20002400>
    11bc:	00f51c63          	bne	a0,a5,11d4 <ADC_DeInit+0x24>
    11c0:	4585                	li	a1,1
    11c2:	20000513          	li	a0,512
    11c6:	233d                	jal	16f4 <RCC_APB2PeriphResetCmd>
    11c8:	4581                	li	a1,0
    11ca:	20000513          	li	a0,512
    11ce:	231d                	jal	16f4 <RCC_APB2PeriphResetCmd>
    11d0:	06f0306f          	j	4a3e <__riscv_restore_0>
    11d4:	400137b7          	lui	a5,0x40013
    11d8:	80078793          	addi	a5,a5,-2048 # 40012800 <_eusrstack+0x20002800>
    11dc:	fef51ae3          	bne	a0,a5,11d0 <ADC_DeInit+0x20>
    11e0:	4585                	li	a1,1
    11e2:	40000513          	li	a0,1024
    11e6:	2339                	jal	16f4 <RCC_APB2PeriphResetCmd>
    11e8:	4581                	li	a1,0
    11ea:	40000513          	li	a0,1024
    11ee:	b7c5                	j	11ce <ADC_DeInit+0x1e>

000011f0 <ADC_Init>:
    11f0:	415c                	lw	a5,4(a0)
    11f2:	e0f10737          	lui	a4,0xe0f10
    11f6:	eff70713          	addi	a4,a4,-257 # e0f0feff <_eusrstack+0xc0effeff>
    11fa:	4d94                	lw	a3,24(a1)
    11fc:	8f7d                	and	a4,a4,a5
    11fe:	419c                	lw	a5,0(a1)
    1200:	8fd5                	or	a5,a5,a3
    1202:	4dd4                	lw	a3,28(a1)
    1204:	8fd5                	or	a5,a5,a3
    1206:	41d4                	lw	a3,4(a1)
    1208:	06a2                	slli	a3,a3,0x8
    120a:	8fd5                	or	a5,a5,a3
    120c:	8fd9                	or	a5,a5,a4
    120e:	c15c                	sw	a5,4(a0)
    1210:	451c                	lw	a5,8(a0)
    1212:	fff1f737          	lui	a4,0xfff1f
    1216:	7fd70713          	addi	a4,a4,2045 # fff1f7fd <_eusrstack+0xdff0f7fd>
    121a:	45d4                	lw	a3,12(a1)
    121c:	8f7d                	and	a4,a4,a5
    121e:	499c                	lw	a5,16(a1)
    1220:	8fd5                	or	a5,a5,a3
    1222:	4594                	lw	a3,8(a1)
    1224:	0686                	slli	a3,a3,0x1
    1226:	8fd5                	or	a5,a5,a3
    1228:	8fd9                	or	a5,a5,a4
    122a:	c51c                	sw	a5,8(a0)
    122c:	555c                	lw	a5,44(a0)
    122e:	ff100737          	lui	a4,0xff100
    1232:	177d                	addi	a4,a4,-1
    1234:	8f7d                	and	a4,a4,a5
    1236:	29dc                	lbu	a5,20(a1)
    1238:	17fd                	addi	a5,a5,-1
    123a:	0ff7f793          	andi	a5,a5,255
    123e:	07d2                	slli	a5,a5,0x14
    1240:	8fd9                	or	a5,a5,a4
    1242:	d55c                	sw	a5,44(a0)
    1244:	8082                	ret

00001246 <ADC_Cmd>:
    1246:	451c                	lw	a5,8(a0)
    1248:	c589                	beqz	a1,1252 <ADC_Cmd+0xc>
    124a:	0017e793          	ori	a5,a5,1
    124e:	c51c                	sw	a5,8(a0)
    1250:	8082                	ret
    1252:	9bf9                	andi	a5,a5,-2
    1254:	bfed                	j	124e <ADC_Cmd+0x8>

00001256 <ADC_SoftwareStartConvCmd>:
    1256:	451c                	lw	a5,8(a0)
    1258:	c591                	beqz	a1,1264 <ADC_SoftwareStartConvCmd+0xe>
    125a:	00500737          	lui	a4,0x500
    125e:	8fd9                	or	a5,a5,a4
    1260:	c51c                	sw	a5,8(a0)
    1262:	8082                	ret
    1264:	ffb00737          	lui	a4,0xffb00
    1268:	177d                	addi	a4,a4,-1
    126a:	8ff9                	and	a5,a5,a4
    126c:	bfd5                	j	1260 <ADC_SoftwareStartConvCmd+0xa>

0000126e <ADC_RegularChannelConfig>:
    126e:	47a5                	li	a5,9
    1270:	04b7f763          	bgeu	a5,a1,12be <ADC_RegularChannelConfig+0x50>
    1274:	478d                	li	a5,3
    1276:	ff658713          	addi	a4,a1,-10
    127a:	02f70733          	mul	a4,a4,a5
    127e:	00c52803          	lw	a6,12(a0)
    1282:	479d                	li	a5,7
    1284:	00e797b3          	sll	a5,a5,a4
    1288:	fff7c793          	not	a5,a5
    128c:	0107f7b3          	and	a5,a5,a6
    1290:	00e696b3          	sll	a3,a3,a4
    1294:	8edd                	or	a3,a3,a5
    1296:	c554                	sw	a3,12(a0)
    1298:	4799                	li	a5,6
    129a:	04c7e363          	bltu	a5,a2,12e0 <ADC_RegularChannelConfig+0x72>
    129e:	4795                	li	a5,5
    12a0:	167d                	addi	a2,a2,-1
    12a2:	02f60633          	mul	a2,a2,a5
    12a6:	5958                	lw	a4,52(a0)
    12a8:	47fd                	li	a5,31
    12aa:	00c797b3          	sll	a5,a5,a2
    12ae:	fff7c793          	not	a5,a5
    12b2:	8ff9                	and	a5,a5,a4
    12b4:	00c59633          	sll	a2,a1,a2
    12b8:	8e5d                	or	a2,a2,a5
    12ba:	d950                	sw	a2,52(a0)
    12bc:	8082                	ret
    12be:	470d                	li	a4,3
    12c0:	02e58733          	mul	a4,a1,a4
    12c4:	01052803          	lw	a6,16(a0)
    12c8:	479d                	li	a5,7
    12ca:	00e797b3          	sll	a5,a5,a4
    12ce:	fff7c793          	not	a5,a5
    12d2:	0107f7b3          	and	a5,a5,a6
    12d6:	00e696b3          	sll	a3,a3,a4
    12da:	8edd                	or	a3,a3,a5
    12dc:	c914                	sw	a3,16(a0)
    12de:	bf6d                	j	1298 <ADC_RegularChannelConfig+0x2a>
    12e0:	47b1                	li	a5,12
    12e2:	02c7e263          	bltu	a5,a2,1306 <ADC_RegularChannelConfig+0x98>
    12e6:	4795                	li	a5,5
    12e8:	1665                	addi	a2,a2,-7
    12ea:	02f60633          	mul	a2,a2,a5
    12ee:	5918                	lw	a4,48(a0)
    12f0:	47fd                	li	a5,31
    12f2:	00c797b3          	sll	a5,a5,a2
    12f6:	fff7c793          	not	a5,a5
    12fa:	8ff9                	and	a5,a5,a4
    12fc:	00c59633          	sll	a2,a1,a2
    1300:	8e5d                	or	a2,a2,a5
    1302:	d910                	sw	a2,48(a0)
    1304:	8082                	ret
    1306:	4795                	li	a5,5
    1308:	164d                	addi	a2,a2,-13
    130a:	02f60633          	mul	a2,a2,a5
    130e:	5558                	lw	a4,44(a0)
    1310:	47fd                	li	a5,31
    1312:	00c797b3          	sll	a5,a5,a2
    1316:	fff7c793          	not	a5,a5
    131a:	8ff9                	and	a5,a5,a4
    131c:	00c595b3          	sll	a1,a1,a2
    1320:	8ddd                	or	a1,a1,a5
    1322:	d54c                	sw	a1,44(a0)
    1324:	8082                	ret

00001326 <ADC_GetConversionValue>:
    1326:	4568                	lw	a0,76(a0)
    1328:	0542                	slli	a0,a0,0x10
    132a:	8141                	srli	a0,a0,0x10
    132c:	8082                	ret

0000132e <ADC_TempSensorVrefintCmd>:
    132e:	400127b7          	lui	a5,0x40012
    1332:	40078793          	addi	a5,a5,1024 # 40012400 <_eusrstack+0x20002400>
    1336:	4798                	lw	a4,8(a5)
    1338:	c511                	beqz	a0,1344 <ADC_TempSensorVrefintCmd+0x16>
    133a:	008006b7          	lui	a3,0x800
    133e:	8f55                	or	a4,a4,a3
    1340:	c798                	sw	a4,8(a5)
    1342:	8082                	ret
    1344:	ff8006b7          	lui	a3,0xff800
    1348:	16fd                	addi	a3,a3,-1
    134a:	8f75                	and	a4,a4,a3
    134c:	bfd5                	j	1340 <ADC_TempSensorVrefintCmd+0x12>

0000134e <ADC_GetFlagStatus>:
    134e:	4108                	lw	a0,0(a0)
    1350:	8d6d                	and	a0,a0,a1
    1352:	00a03533          	snez	a0,a0
    1356:	8082                	ret

00001358 <ADC_BufferCmd>:
    1358:	415c                	lw	a5,4(a0)
    135a:	c591                	beqz	a1,1366 <ADC_BufferCmd+0xe>
    135c:	04000737          	lui	a4,0x4000
    1360:	8fd9                	or	a5,a5,a4
    1362:	c15c                	sw	a5,4(a0)
    1364:	8082                	ret
    1366:	fc000737          	lui	a4,0xfc000
    136a:	177d                	addi	a4,a4,-1
    136c:	8ff9                	and	a5,a5,a4
    136e:	bfd5                	j	1362 <ADC_BufferCmd+0xa>

00001370 <EXTI_ClearITPendingBit>:
    1370:	400107b7          	lui	a5,0x40010
    1374:	40a7aa23          	sw	a0,1044(a5) # 40010414 <_eusrstack+0x20000414>
    1378:	8082                	ret

0000137a <FLASH_Lock>:
    137a:	40022737          	lui	a4,0x40022
    137e:	4b1c                	lw	a5,16(a4)
    1380:	0807e793          	ori	a5,a5,128
    1384:	cb1c                	sw	a5,16(a4)
    1386:	8082                	ret

00001388 <FLASH_Unlock_Fast>:
    1388:	456706b7          	lui	a3,0x45670
    138c:	400227b7          	lui	a5,0x40022
    1390:	12368693          	addi	a3,a3,291 # 45670123 <_eusrstack+0x25660123>
    1394:	cdef9737          	lui	a4,0xcdef9
    1398:	c3d4                	sw	a3,4(a5)
    139a:	9ab70713          	addi	a4,a4,-1621 # cdef89ab <_eusrstack+0xadee89ab>
    139e:	c3d8                	sw	a4,4(a5)
    13a0:	d3d4                	sw	a3,36(a5)
    13a2:	d3d8                	sw	a4,36(a5)
    13a4:	8082                	ret

000013a6 <FLASH_Lock_Fast>:
    13a6:	674032ef          	jal	t0,4a1a <__riscv_save_0>
    13aa:	3fc1                	jal	137a <FLASH_Lock>
    13ac:	6920306f          	j	4a3e <__riscv_restore_0>

000013b0 <FLASH_ErasePage_Fast>:
    13b0:	400227b7          	lui	a5,0x40022
    13b4:	4b98                	lw	a4,16(a5)
    13b6:	000206b7          	lui	a3,0x20
    13ba:	f0057513          	andi	a0,a0,-256
    13be:	8f55                	or	a4,a4,a3
    13c0:	cb98                	sw	a4,16(a5)
    13c2:	cbc8                	sw	a0,20(a5)
    13c4:	4b98                	lw	a4,16(a5)
    13c6:	04076713          	ori	a4,a4,64
    13ca:	cb98                	sw	a4,16(a5)
    13cc:	47d8                	lw	a4,12(a5)
    13ce:	8b05                	andi	a4,a4,1
    13d0:	ff75                	bnez	a4,13cc <FLASH_ErasePage_Fast+0x1c>
    13d2:	4b98                	lw	a4,16(a5)
    13d4:	7681                	lui	a3,0xfffe0
    13d6:	16fd                	addi	a3,a3,-1
    13d8:	8f75                	and	a4,a4,a3
    13da:	cb98                	sw	a4,16(a5)
    13dc:	8082                	ret

000013de <FLASH_ProgramPage_Fast>:
    13de:	40022737          	lui	a4,0x40022
    13e2:	4b1c                	lw	a5,16(a4)
    13e4:	66c1                	lui	a3,0x10
    13e6:	f0057513          	andi	a0,a0,-256
    13ea:	8fd5                	or	a5,a5,a3
    13ec:	cb1c                	sw	a5,16(a4)
    13ee:	475c                	lw	a5,12(a4)
    13f0:	8b85                	andi	a5,a5,1
    13f2:	fff5                	bnez	a5,13ee <FLASH_ProgramPage_Fast+0x10>
    13f4:	40022737          	lui	a4,0x40022
    13f8:	475c                	lw	a5,12(a4)
    13fa:	8b89                	andi	a5,a5,2
    13fc:	fff5                	bnez	a5,13f8 <FLASH_ProgramPage_Fast+0x1a>
    13fe:	40022737          	lui	a4,0x40022
    1402:	10000613          	li	a2,256
    1406:	00f586b3          	add	a3,a1,a5
    140a:	0006a803          	lw	a6,0(a3) # 10000 <_data_lma+0xa0fc>
    140e:	00f506b3          	add	a3,a0,a5
    1412:	0106a023          	sw	a6,0(a3)
    1416:	4754                	lw	a3,12(a4)
    1418:	8a89                	andi	a3,a3,2
    141a:	fef5                	bnez	a3,1416 <FLASH_ProgramPage_Fast+0x38>
    141c:	0791                	addi	a5,a5,4
    141e:	fec794e3          	bne	a5,a2,1406 <FLASH_ProgramPage_Fast+0x28>
    1422:	4b1c                	lw	a5,16(a4)
    1424:	002006b7          	lui	a3,0x200
    1428:	8fd5                	or	a5,a5,a3
    142a:	cb1c                	sw	a5,16(a4)
    142c:	400227b7          	lui	a5,0x40022
    1430:	47d8                	lw	a4,12(a5)
    1432:	8b05                	andi	a4,a4,1
    1434:	ff75                	bnez	a4,1430 <FLASH_ProgramPage_Fast+0x52>
    1436:	4b98                	lw	a4,16(a5)
    1438:	76c1                	lui	a3,0xffff0
    143a:	16fd                	addi	a3,a3,-1
    143c:	8f75                	and	a4,a4,a3
    143e:	cb98                	sw	a4,16(a5)
    1440:	8082                	ret

00001442 <FLASH_GetMACAddress>:
    1442:	1ffff737          	lui	a4,0x1ffff
    1446:	7e872783          	lw	a5,2024(a4) # 1ffff7e8 <_data_lma+0x1fff98e4>
    144a:	0087d693          	srli	a3,a5,0x8
    144e:	a11c                	sb	a5,0(a0)
    1450:	b114                	sb	a3,1(a0)
    1452:	0107d693          	srli	a3,a5,0x10
    1456:	83e1                	srli	a5,a5,0x18
    1458:	a134                	sb	a3,2(a0)
    145a:	b13c                	sb	a5,3(a0)
    145c:	7ec72783          	lw	a5,2028(a4)
    1460:	a15c                	sb	a5,4(a0)
    1462:	83a1                	srli	a5,a5,0x8
    1464:	b15c                	sb	a5,5(a0)
    1466:	8082                	ret

00001468 <GPIO_Init>:
    1468:	459c                	lw	a5,8(a1)
    146a:	0107f713          	andi	a4,a5,16
    146e:	00f7f813          	andi	a6,a5,15
    1472:	c701                	beqz	a4,147a <GPIO_Init+0x12>
    1474:	41d8                	lw	a4,4(a1)
    1476:	00e86833          	or	a6,a6,a4
    147a:	218e                	lhu	a1,0(a1)
    147c:	0ff5f713          	andi	a4,a1,255
    1480:	c339                	beqz	a4,14c6 <GPIO_Init+0x5e>
    1482:	4118                	lw	a4,0(a0)
    1484:	4681                	li	a3,0
    1486:	4e85                	li	t4,1
    1488:	4f3d                	li	t5,15
    148a:	02800f93          	li	t6,40
    148e:	04800293          	li	t0,72
    1492:	4e21                	li	t3,8
    1494:	00de9633          	sll	a2,t4,a3
    1498:	00c5f8b3          	and	a7,a1,a2
    149c:	03161163          	bne	a2,a7,14be <GPIO_Init+0x56>
    14a0:	00269893          	slli	a7,a3,0x2
    14a4:	011f1333          	sll	t1,t5,a7
    14a8:	fff34313          	not	t1,t1
    14ac:	00e37733          	and	a4,t1,a4
    14b0:	011818b3          	sll	a7,a6,a7
    14b4:	00e8e733          	or	a4,a7,a4
    14b8:	05f79f63          	bne	a5,t6,1516 <GPIO_Init+0xae>
    14bc:	c950                	sw	a2,20(a0)
    14be:	0685                	addi	a3,a3,1
    14c0:	fdc69ae3          	bne	a3,t3,1494 <GPIO_Init+0x2c>
    14c4:	c118                	sw	a4,0(a0)
    14c6:	0ff00713          	li	a4,255
    14ca:	04b77563          	bgeu	a4,a1,1514 <GPIO_Init+0xac>
    14ce:	4154                	lw	a3,4(a0)
    14d0:	4621                	li	a2,8
    14d2:	4e85                	li	t4,1
    14d4:	4f3d                	li	t5,15
    14d6:	02800f93          	li	t6,40
    14da:	04800293          	li	t0,72
    14de:	4e41                	li	t3,16
    14e0:	00ce98b3          	sll	a7,t4,a2
    14e4:	0115f733          	and	a4,a1,a7
    14e8:	02e89263          	bne	a7,a4,150c <GPIO_Init+0xa4>
    14ec:	00261713          	slli	a4,a2,0x2
    14f0:	1701                	addi	a4,a4,-32
    14f2:	00ef1333          	sll	t1,t5,a4
    14f6:	fff34313          	not	t1,t1
    14fa:	00d376b3          	and	a3,t1,a3
    14fe:	00e81733          	sll	a4,a6,a4
    1502:	8ed9                	or	a3,a3,a4
    1504:	01f79d63          	bne	a5,t6,151e <GPIO_Init+0xb6>
    1508:	01152a23          	sw	a7,20(a0)
    150c:	0605                	addi	a2,a2,1
    150e:	fdc619e3          	bne	a2,t3,14e0 <GPIO_Init+0x78>
    1512:	c154                	sw	a3,4(a0)
    1514:	8082                	ret
    1516:	fa5794e3          	bne	a5,t0,14be <GPIO_Init+0x56>
    151a:	c910                	sw	a2,16(a0)
    151c:	b74d                	j	14be <GPIO_Init+0x56>
    151e:	fe5797e3          	bne	a5,t0,150c <GPIO_Init+0xa4>
    1522:	01152823          	sw	a7,16(a0)
    1526:	b7dd                	j	150c <GPIO_Init+0xa4>

00001528 <PWR_BackupAccessCmd>:
    1528:	40007737          	lui	a4,0x40007
    152c:	431c                	lw	a5,0(a4)
    152e:	c509                	beqz	a0,1538 <PWR_BackupAccessCmd+0x10>
    1530:	1007e793          	ori	a5,a5,256
    1534:	c31c                	sw	a5,0(a4)
    1536:	8082                	ret
    1538:	eff7f793          	andi	a5,a5,-257
    153c:	bfe5                	j	1534 <PWR_BackupAccessCmd+0xc>

0000153e <RCC_ADCCLKConfig>:
    153e:	400216b7          	lui	a3,0x40021
    1542:	42dc                	lw	a5,4(a3)
    1544:	7751                	lui	a4,0xffff4
    1546:	177d                	addi	a4,a4,-1
    1548:	8ff9                	and	a5,a5,a4
    154a:	8d5d                	or	a0,a0,a5
    154c:	c2c8                	sw	a0,4(a3)
    154e:	8082                	ret

00001550 <RCC_LSEConfig>:
    1550:	400217b7          	lui	a5,0x40021
    1554:	02078023          	sb	zero,32(a5) # 40021020 <_eusrstack+0x20011020>
    1558:	02078023          	sb	zero,32(a5)
    155c:	4705                	li	a4,1
    155e:	00e50663          	beq	a0,a4,156a <RCC_LSEConfig+0x1a>
    1562:	4711                	li	a4,4
    1564:	00e50663          	beq	a0,a4,1570 <RCC_LSEConfig+0x20>
    1568:	8082                	ret
    156a:	02a78023          	sb	a0,32(a5)
    156e:	8082                	ret
    1570:	4715                	li	a4,5
    1572:	02e78023          	sb	a4,32(a5)
    1576:	8082                	ret

00001578 <RCC_LSICmd>:
    1578:	40021737          	lui	a4,0x40021
    157c:	535c                	lw	a5,36(a4)
    157e:	c509                	beqz	a0,1588 <RCC_LSICmd+0x10>
    1580:	0017e793          	ori	a5,a5,1
    1584:	d35c                	sw	a5,36(a4)
    1586:	8082                	ret
    1588:	9bf9                	andi	a5,a5,-2
    158a:	bfed                	j	1584 <RCC_LSICmd+0xc>

0000158c <RCC_RTCCLKConfig>:
    158c:	40021737          	lui	a4,0x40021
    1590:	531c                	lw	a5,32(a4)
    1592:	8d5d                	or	a0,a0,a5
    1594:	d308                	sw	a0,32(a4)
    1596:	8082                	ret

00001598 <RCC_RTCCLKCmd>:
    1598:	c901                	beqz	a0,15a8 <RCC_RTCCLKCmd+0x10>
    159a:	40021737          	lui	a4,0x40021
    159e:	531c                	lw	a5,32(a4)
    15a0:	66a1                	lui	a3,0x8
    15a2:	8fd5                	or	a5,a5,a3
    15a4:	d31c                	sw	a5,32(a4)
    15a6:	8082                	ret
    15a8:	400216b7          	lui	a3,0x40021
    15ac:	529c                	lw	a5,32(a3)
    15ae:	7761                	lui	a4,0xffff8
    15b0:	177d                	addi	a4,a4,-1
    15b2:	8ff9                	and	a5,a5,a4
    15b4:	d29c                	sw	a5,32(a3)
    15b6:	8082                	ret

000015b8 <RCC_GetClocksFreq>:
    15b8:	40021737          	lui	a4,0x40021
    15bc:	435c                	lw	a5,4(a4)
    15be:	4691                	li	a3,4
    15c0:	8bb1                	andi	a5,a5,12
    15c2:	06d78763          	beq	a5,a3,1630 <RCC_GetClocksFreq+0x78>
    15c6:	46a1                	li	a3,8
    15c8:	06d78963          	beq	a5,a3,163a <RCC_GetClocksFreq+0x82>
    15cc:	007a17b7          	lui	a5,0x7a1
    15d0:	20078793          	addi	a5,a5,512 # 7a1200 <_data_lma+0x79b2fc>
    15d4:	c11c                	sw	a5,0(a0)
    15d6:	40021637          	lui	a2,0x40021
    15da:	425c                	lw	a5,4(a2)
    15dc:	20000737          	lui	a4,0x20000
    15e0:	00070713          	mv	a4,a4
    15e4:	8391                	srli	a5,a5,0x4
    15e6:	8bbd                	andi	a5,a5,15
    15e8:	97ba                	add	a5,a5,a4
    15ea:	2394                	lbu	a3,0(a5)
    15ec:	411c                	lw	a5,0(a0)
    15ee:	00d7d7b3          	srl	a5,a5,a3
    15f2:	c15c                	sw	a5,4(a0)
    15f4:	4254                	lw	a3,4(a2)
    15f6:	82a1                	srli	a3,a3,0x8
    15f8:	8a9d                	andi	a3,a3,7
    15fa:	96ba                	add	a3,a3,a4
    15fc:	2294                	lbu	a3,0(a3)
    15fe:	00d7d6b3          	srl	a3,a5,a3
    1602:	c514                	sw	a3,8(a0)
    1604:	4254                	lw	a3,4(a2)
    1606:	82ad                	srli	a3,a3,0xb
    1608:	8a9d                	andi	a3,a3,7
    160a:	9736                	add	a4,a4,a3
    160c:	2318                	lbu	a4,0(a4)
    160e:	00e7d7b3          	srl	a5,a5,a4
    1612:	c55c                	sw	a5,12(a0)
    1614:	4258                	lw	a4,4(a2)
    1616:	8339                	srli	a4,a4,0xe
    1618:	00377693          	andi	a3,a4,3
    161c:	20000737          	lui	a4,0x20000
    1620:	07070713          	addi	a4,a4,112 # 20000070 <ADCPrescTable>
    1624:	9736                	add	a4,a4,a3
    1626:	2318                	lbu	a4,0(a4)
    1628:	02e7d7b3          	divu	a5,a5,a4
    162c:	c91c                	sw	a5,16(a0)
    162e:	8082                	ret
    1630:	01e857b7          	lui	a5,0x1e85
    1634:	80078793          	addi	a5,a5,-2048 # 1e84800 <_data_lma+0x1e7e8fc>
    1638:	bf71                	j	15d4 <RCC_GetClocksFreq+0x1c>
    163a:	435c                	lw	a5,4(a4)
    163c:	4358                	lw	a4,4(a4)
    163e:	66c1                	lui	a3,0x10
    1640:	83c9                	srli	a5,a5,0x12
    1642:	8bbd                	andi	a5,a5,15
    1644:	8f75                	and	a4,a4,a3
    1646:	0789                	addi	a5,a5,2
    1648:	46c5                	li	a3,17
    164a:	00d79363          	bne	a5,a3,1650 <RCC_GetClocksFreq+0x98>
    164e:	47c9                	li	a5,18
    1650:	ef01                	bnez	a4,1668 <RCC_GetClocksFreq+0xb0>
    1652:	40024737          	lui	a4,0x40024
    1656:	80072703          	lw	a4,-2048(a4) # 40023800 <_eusrstack+0x20013800>
    165a:	8b41                	andi	a4,a4,16
    165c:	cb15                	beqz	a4,1690 <RCC_GetClocksFreq+0xd8>
    165e:	007a1737          	lui	a4,0x7a1
    1662:	20070713          	addi	a4,a4,512 # 7a1200 <_data_lma+0x79b2fc>
    1666:	a829                	j	1680 <RCC_GetClocksFreq+0xc8>
    1668:	400216b7          	lui	a3,0x40021
    166c:	42d8                	lw	a4,4(a3)
    166e:	00c00637          	lui	a2,0xc00
    1672:	8f71                	and	a4,a4,a2
    1674:	00c71963          	bne	a4,a2,1686 <RCC_GetClocksFreq+0xce>
    1678:	00f42737          	lui	a4,0xf42
    167c:	40070713          	addi	a4,a4,1024 # f42400 <_data_lma+0xf3c4fc>
    1680:	02e787b3          	mul	a5,a5,a4
    1684:	bf81                	j	15d4 <RCC_GetClocksFreq+0x1c>
    1686:	42d8                	lw	a4,4(a3)
    1688:	00e71693          	slli	a3,a4,0xe
    168c:	fc06d9e3          	bgez	a3,165e <RCC_GetClocksFreq+0xa6>
    1690:	003d1737          	lui	a4,0x3d1
    1694:	90070713          	addi	a4,a4,-1792 # 3d0900 <_data_lma+0x3ca9fc>
    1698:	b7e5                	j	1680 <RCC_GetClocksFreq+0xc8>

0000169a <RCC_AHBPeriphClockCmd>:
    169a:	c599                	beqz	a1,16a8 <RCC_AHBPeriphClockCmd+0xe>
    169c:	40021737          	lui	a4,0x40021
    16a0:	4b5c                	lw	a5,20(a4)
    16a2:	8d5d                	or	a0,a0,a5
    16a4:	cb48                	sw	a0,20(a4)
    16a6:	8082                	ret
    16a8:	400217b7          	lui	a5,0x40021
    16ac:	4bd8                	lw	a4,20(a5)
    16ae:	fff54513          	not	a0,a0
    16b2:	8d79                	and	a0,a0,a4
    16b4:	cbc8                	sw	a0,20(a5)
    16b6:	8082                	ret

000016b8 <RCC_APB2PeriphClockCmd>:
    16b8:	c599                	beqz	a1,16c6 <RCC_APB2PeriphClockCmd+0xe>
    16ba:	40021737          	lui	a4,0x40021
    16be:	4f1c                	lw	a5,24(a4)
    16c0:	8d5d                	or	a0,a0,a5
    16c2:	cf08                	sw	a0,24(a4)
    16c4:	8082                	ret
    16c6:	400217b7          	lui	a5,0x40021
    16ca:	4f98                	lw	a4,24(a5)
    16cc:	fff54513          	not	a0,a0
    16d0:	8d79                	and	a0,a0,a4
    16d2:	cf88                	sw	a0,24(a5)
    16d4:	8082                	ret

000016d6 <RCC_APB1PeriphClockCmd>:
    16d6:	c599                	beqz	a1,16e4 <RCC_APB1PeriphClockCmd+0xe>
    16d8:	40021737          	lui	a4,0x40021
    16dc:	4f5c                	lw	a5,28(a4)
    16de:	8d5d                	or	a0,a0,a5
    16e0:	cf48                	sw	a0,28(a4)
    16e2:	8082                	ret
    16e4:	400217b7          	lui	a5,0x40021
    16e8:	4fd8                	lw	a4,28(a5)
    16ea:	fff54513          	not	a0,a0
    16ee:	8d79                	and	a0,a0,a4
    16f0:	cfc8                	sw	a0,28(a5)
    16f2:	8082                	ret

000016f4 <RCC_APB2PeriphResetCmd>:
    16f4:	c599                	beqz	a1,1702 <RCC_APB2PeriphResetCmd+0xe>
    16f6:	40021737          	lui	a4,0x40021
    16fa:	475c                	lw	a5,12(a4)
    16fc:	8d5d                	or	a0,a0,a5
    16fe:	c748                	sw	a0,12(a4)
    1700:	8082                	ret
    1702:	400217b7          	lui	a5,0x40021
    1706:	47d8                	lw	a4,12(a5)
    1708:	fff54513          	not	a0,a0
    170c:	8d79                	and	a0,a0,a4
    170e:	c7c8                	sw	a0,12(a5)
    1710:	8082                	ret

00001712 <RTC_EnterConfigMode>:
    1712:	400037b7          	lui	a5,0x40003
    1716:	8047d703          	lhu	a4,-2044(a5) # 40002804 <_eusrstack+0x1fff2804>
    171a:	01076713          	ori	a4,a4,16
    171e:	80e79223          	sh	a4,-2044(a5)
    1722:	8082                	ret

00001724 <RTC_ExitConfigMode>:
    1724:	40003737          	lui	a4,0x40003
    1728:	80475783          	lhu	a5,-2044(a4) # 40002804 <_eusrstack+0x1fff2804>
    172c:	07c2                	slli	a5,a5,0x10
    172e:	83c1                	srli	a5,a5,0x10
    1730:	9bbd                	andi	a5,a5,-17
    1732:	07c2                	slli	a5,a5,0x10
    1734:	83c1                	srli	a5,a5,0x10
    1736:	80f71223          	sh	a5,-2044(a4)
    173a:	8082                	ret

0000173c <RTC_GetCounter>:
    173c:	400036b7          	lui	a3,0x40003
    1740:	8186d783          	lhu	a5,-2024(a3) # 40002818 <_eusrstack+0x1fff2818>
    1744:	81c6d503          	lhu	a0,-2020(a3)
    1748:	8186d703          	lhu	a4,-2024(a3)
    174c:	07c2                	slli	a5,a5,0x10
    174e:	01051613          	slli	a2,a0,0x10
    1752:	0742                	slli	a4,a4,0x10
    1754:	83c1                	srli	a5,a5,0x10
    1756:	8341                	srli	a4,a4,0x10
    1758:	8241                	srli	a2,a2,0x10
    175a:	80068693          	addi	a3,a3,-2048
    175e:	00e78663          	beq	a5,a4,176a <RTC_GetCounter+0x2e>
    1762:	2eca                	lhu	a0,28(a3)
    1764:	0742                	slli	a4,a4,0x10
    1766:	8d59                	or	a0,a0,a4
    1768:	8082                	ret
    176a:	01079513          	slli	a0,a5,0x10
    176e:	8d51                	or	a0,a0,a2
    1770:	8082                	ret

00001772 <RTC_SetCounter>:
    1772:	2a8032ef          	jal	t0,4a1a <__riscv_save_0>
    1776:	1141                	addi	sp,sp,-16
    1778:	c62a                	sw	a0,12(sp)
    177a:	3f61                	jal	1712 <RTC_EnterConfigMode>
    177c:	4532                	lw	a0,12(sp)
    177e:	400037b7          	lui	a5,0x40003
    1782:	01055713          	srli	a4,a0,0x10
    1786:	0542                	slli	a0,a0,0x10
    1788:	80e79c23          	sh	a4,-2024(a5) # 40002818 <_eusrstack+0x1fff2818>
    178c:	8141                	srli	a0,a0,0x10
    178e:	80a79e23          	sh	a0,-2020(a5)
    1792:	3f49                	jal	1724 <RTC_ExitConfigMode>
    1794:	0141                	addi	sp,sp,16
    1796:	2a80306f          	j	4a3e <__riscv_restore_0>

0000179a <RTC_SetPrescaler>:
    179a:	280032ef          	jal	t0,4a1a <__riscv_save_0>
    179e:	1141                	addi	sp,sp,-16
    17a0:	c62a                	sw	a0,12(sp)
    17a2:	3f85                	jal	1712 <RTC_EnterConfigMode>
    17a4:	4532                	lw	a0,12(sp)
    17a6:	400037b7          	lui	a5,0x40003
    17aa:	01055713          	srli	a4,a0,0x10
    17ae:	8b3d                	andi	a4,a4,15
    17b0:	0542                	slli	a0,a0,0x10
    17b2:	80e79423          	sh	a4,-2040(a5) # 40002808 <_eusrstack+0x1fff2808>
    17b6:	8141                	srli	a0,a0,0x10
    17b8:	80a79623          	sh	a0,-2036(a5)
    17bc:	37a5                	jal	1724 <RTC_ExitConfigMode>
    17be:	0141                	addi	sp,sp,16
    17c0:	27e0306f          	j	4a3e <__riscv_restore_0>

000017c4 <RTC_WaitForLastTask>:
    17c4:	40003737          	lui	a4,0x40003
    17c8:	80475783          	lhu	a5,-2044(a4) # 40002804 <_eusrstack+0x1fff2804>
    17cc:	0207f793          	andi	a5,a5,32
    17d0:	dfe5                	beqz	a5,17c8 <RTC_WaitForLastTask+0x4>
    17d2:	8082                	ret

000017d4 <RTC_ClearFlag>:
    17d4:	400037b7          	lui	a5,0x40003
    17d8:	8047d703          	lhu	a4,-2044(a5) # 40002804 <_eusrstack+0x1fff2804>
    17dc:	fff54513          	not	a0,a0
    17e0:	8d79                	and	a0,a0,a4
    17e2:	80a79223          	sh	a0,-2044(a5)
    17e6:	8082                	ret

000017e8 <RTC_ClearITPendingBit>:
    17e8:	232032ef          	jal	t0,4a1a <__riscv_save_0>
    17ec:	37e5                	jal	17d4 <RTC_ClearFlag>
    17ee:	2500306f          	j	4a3e <__riscv_restore_0>

000017f2 <Calibration_LSI>:
    17f2:	1f8032ef          	jal	t0,49ea <__riscv_save_12>
    17f6:	8081a403          	lw	s0,-2040(gp) # 20000078 <SystemCoreClock>
    17fa:	6a91                	lui	s5,0x4
    17fc:	ffe49937          	lui	s2,0xffe49
    1800:	001b79b7          	lui	s3,0x1b7
    1804:	000dca37          	lui	s4,0xdc
    1808:	e80a8b13          	addi	s6,s5,-384 # 3e80 <RFEND_TXCtune+0x75c>
    180c:	8c090913          	addi	s2,s2,-1856 # ffe488c0 <_eusrstack+0xdfe388c0>
    1810:	74098993          	addi	s3,s3,1856 # 1b7740 <_data_lma+0x1b183c>
    1814:	ba0a0a13          	addi	s4,s4,-1120 # dbba0 <_data_lma+0xd5c9c>
    1818:	03644b33          	div	s6,s0,s6
    181c:	400227b7          	lui	a5,0x40022
    1820:	0497c703          	lbu	a4,73(a5) # 40022049 <_eusrstack+0x20012049>
    1824:	1141                	addi	sp,sp,-16
    1826:	84aa                	mv	s1,a0
    1828:	0f077713          	andi	a4,a4,240
    182c:	04e784a3          	sb	a4,73(a5)
    1830:	0497c703          	lbu	a4,73(a5)
    1834:	4d11                	li	s10,4
    1836:	40022cb7          	lui	s9,0x40022
    183a:	0ff77713          	andi	a4,a4,255
    183e:	04e784a3          	sb	a4,73(a5)
    1842:	6d91                	lui	s11,0x4
    1844:	7be1                	lui	s7,0xffff8
    1846:	1afd                	addi	s5,s5,-1
    1848:	4c09                	li	s8,2
    184a:	03244933          	div	s2,s0,s2
    184e:	033449b3          	div	s3,s0,s3
    1852:	03444a33          	div	s4,s0,s4
    1856:	04fcc703          	lbu	a4,79(s9) # 4002204f <_eusrstack+0x2001204f>
    185a:	00276713          	ori	a4,a4,2
    185e:	04ec87a3          	sb	a4,79(s9)
    1862:	04ccd703          	lhu	a4,76(s9)
    1866:	01b76733          	or	a4,a4,s11
    186a:	04ec9623          	sh	a4,76(s9)
    186e:	04ccd703          	lhu	a4,76(s9)
    1872:	01776733          	or	a4,a4,s7
    1876:	0742                	slli	a4,a4,0x10
    1878:	8341                	srli	a4,a4,0x10
    187a:	04ec9623          	sh	a4,76(s9)
    187e:	04ccd703          	lhu	a4,76(s9)
    1882:	0742                	slli	a4,a4,0x10
    1884:	8741                	srai	a4,a4,0x10
    1886:	fe075ce3          	bgez	a4,187e <Calibration_LSI+0x8c>
    188a:	04ccd703          	lhu	a4,76(s9)
    188e:	04fcc703          	lbu	a4,79(s9)
    1892:	0fd77713          	andi	a4,a4,253
    1896:	04ec87a3          	sb	a4,79(s9)
    189a:	04fcc703          	lbu	a4,79(s9)
    189e:	00276713          	ori	a4,a4,2
    18a2:	04ec87a3          	sb	a4,79(s9)
    18a6:	04ccd703          	lhu	a4,76(s9)
    18aa:	01b76733          	or	a4,a4,s11
    18ae:	04ec9623          	sh	a4,76(s9)
    18b2:	04ccd703          	lhu	a4,76(s9)
    18b6:	01776733          	or	a4,a4,s7
    18ba:	0742                	slli	a4,a4,0x10
    18bc:	8341                	srli	a4,a4,0x10
    18be:	04ec9623          	sh	a4,76(s9)
    18c2:	3dad                	jal	173c <RTC_GetCounter>
    18c4:	87aa                	mv	a5,a0
    18c6:	c63e                	sw	a5,12(sp)
    18c8:	3d95                	jal	173c <RTC_GetCounter>
    18ca:	47b2                	lw	a5,12(sp)
    18cc:	fef50de3          	beq	a0,a5,18c6 <Calibration_LSI+0xd4>
    18d0:	04ccd783          	lhu	a5,76(s9)
    18d4:	01b7e7b3          	or	a5,a5,s11
    18d8:	04fc9623          	sh	a5,76(s9)
    18dc:	04ccd783          	lhu	a5,76(s9)
    18e0:	07c2                	slli	a5,a5,0x10
    18e2:	87c1                	srai	a5,a5,0x10
    18e4:	fe07cce3          	bltz	a5,18dc <Calibration_LSI+0xea>
    18e8:	04ccd703          	lhu	a4,76(s9)
    18ec:	0742                	slli	a4,a4,0x10
    18ee:	8741                	srai	a4,a4,0x10
    18f0:	fe075ce3          	bgez	a4,18e8 <Calibration_LSI+0xf6>
    18f4:	04ccd703          	lhu	a4,76(s9)
    18f8:	04ecc783          	lbu	a5,78(s9)
    18fc:	00eaf733          	and	a4,s5,a4
    1900:	02fa87b3          	mul	a5,s5,a5
    1904:	973e                	add	a4,a4,a5
    1906:	41670733          	sub	a4,a4,s6
    190a:	00e95463          	bge	s2,a4,1912 <Calibration_LSI+0x120>
    190e:	03374a63          	blt	a4,s3,1942 <Calibration_LSI+0x150>
    1912:	1d7d                	addi	s10,s10,-1
    1914:	0ffd7d13          	andi	s10,s10,255
    1918:	020d0563          	beqz	s10,1942 <Calibration_LSI+0x150>
    191c:	00171793          	slli	a5,a4,0x1
    1920:	0347c7b3          	div	a5,a5,s4
    1924:	00e05d63          	blez	a4,193e <Calibration_LSI+0x14c>
    1928:	0785                	addi	a5,a5,1
    192a:	036cd683          	lhu	a3,54(s9)
    192e:	0387c7b3          	div	a5,a5,s8
    1932:	97b6                	add	a5,a5,a3
    1934:	07c2                	slli	a5,a5,0x10
    1936:	83c1                	srli	a5,a5,0x10
    1938:	02fc9b23          	sh	a5,54(s9)
    193c:	bf29                	j	1856 <Calibration_LSI+0x64>
    193e:	17fd                	addi	a5,a5,-1
    1940:	b7ed                	j	192a <Calibration_LSI+0x138>
    1942:	400227b7          	lui	a5,0x40022
    1946:	0497c703          	lbu	a4,73(a5) # 40022049 <_eusrstack+0x20012049>
    194a:	66a1                	lui	a3,0x8
    194c:	0f077713          	andi	a4,a4,240
    1950:	04e784a3          	sb	a4,73(a5)
    1954:	0497c703          	lbu	a4,73(a5)
    1958:	00276713          	ori	a4,a4,2
    195c:	04e784a3          	sb	a4,73(a5)
    1960:	04f7c703          	lbu	a4,79(a5)
    1964:	0fd77713          	andi	a4,a4,253
    1968:	04e787a3          	sb	a4,79(a5)
    196c:	04f7c703          	lbu	a4,79(a5)
    1970:	00276713          	ori	a4,a4,2
    1974:	04e787a3          	sb	a4,79(a5)
    1978:	04c7d703          	lhu	a4,76(a5)
    197c:	8f55                	or	a4,a4,a3
    197e:	04e79623          	sh	a4,76(a5)
    1982:	04c7d703          	lhu	a4,76(a5)
    1986:	6691                	lui	a3,0x4
    1988:	8f55                	or	a4,a4,a3
    198a:	04e79623          	sh	a4,76(a5)
    198e:	400226b7          	lui	a3,0x40022
    1992:	04c6d703          	lhu	a4,76(a3) # 4002204c <_eusrstack+0x2001204c>
    1996:	02c68793          	addi	a5,a3,44
    199a:	0742                	slli	a4,a4,0x10
    199c:	8741                	srai	a4,a4,0x10
    199e:	fe075ae3          	bgez	a4,1992 <Calibration_LSI+0x1a0>
    19a2:	04c6d703          	lhu	a4,76(a3)
    19a6:	04f6c703          	lbu	a4,79(a3)
    19aa:	0fd77713          	andi	a4,a4,253
    19ae:	04e687a3          	sb	a4,79(a3)
    19b2:	04f6c703          	lbu	a4,79(a3)
    19b6:	00276713          	ori	a4,a4,2
    19ba:	04e687a3          	sb	a4,79(a3)
    19be:	04c6d703          	lhu	a4,76(a3)
    19c2:	66a1                	lui	a3,0x8
    19c4:	8f55                	or	a4,a4,a3
    19c6:	b39a                	sh	a4,32(a5)
    19c8:	339a                	lhu	a4,32(a5)
    19ca:	6691                	lui	a3,0x4
    19cc:	8f55                	or	a4,a4,a3
    19ce:	b39a                	sh	a4,32(a5)
    19d0:	33b5                	jal	173c <RTC_GetCounter>
    19d2:	892a                	mv	s2,a0
    19d4:	33a5                	jal	173c <RTC_GetCounter>
    19d6:	ff250fe3          	beq	a0,s2,19d4 <Calibration_LSI+0x1e2>
    19da:	400227b7          	lui	a5,0x40022
    19de:	04c7d703          	lhu	a4,76(a5) # 4002204c <_eusrstack+0x2001204c>
    19e2:	6691                	lui	a3,0x4
    19e4:	8f55                	or	a4,a4,a3
    19e6:	04e79623          	sh	a4,76(a5)
    19ea:	40022737          	lui	a4,0x40022
    19ee:	04c75783          	lhu	a5,76(a4) # 4002204c <_eusrstack+0x2001204c>
    19f2:	07c2                	slli	a5,a5,0x10
    19f4:	87c1                	srai	a5,a5,0x10
    19f6:	fe07cce3          	bltz	a5,19ee <Calibration_LSI+0x1fc>
    19fa:	400226b7          	lui	a3,0x40022
    19fe:	04c6d703          	lhu	a4,76(a3) # 4002204c <_eusrstack+0x2001204c>
    1a02:	0742                	slli	a4,a4,0x10
    1a04:	8741                	srai	a4,a4,0x10
    1a06:	fe075ce3          	bgez	a4,19fe <Calibration_LSI+0x20c>
    1a0a:	04c6d703          	lhu	a4,76(a3)
    1a0e:	04e6c683          	lbu	a3,78(a3)
    1a12:	000f4937          	lui	s2,0xf4
    1a16:	6791                	lui	a5,0x4
    1a18:	17fd                	addi	a5,a5,-1
    1a1a:	24090913          	addi	s2,s2,576 # f4240 <_data_lma+0xee33c>
    1a1e:	03244933          	div	s2,s0,s2
    1a22:	8f7d                	and	a4,a4,a5
    1a24:	6625                	lui	a2,0x9
    1a26:	ca060613          	addi	a2,a2,-864 # 8ca0 <_data_lma+0x2d9c>
    1a2a:	02d787b3          	mul	a5,a5,a3
    1a2e:	973e                	add	a4,a4,a5
    1a30:	3e800793          	li	a5,1000
    1a34:	02f44433          	div	s0,s0,a5
    1a38:	02f906b3          	mul	a3,s2,a5
    1a3c:	0c800793          	li	a5,200
    1a40:	8f15                	sub	a4,a4,a3
    1a42:	2ec00693          	li	a3,748
    1a46:	02d406b3          	mul	a3,s0,a3
    1a4a:	02c6c6b3          	div	a3,a3,a2
    1a4e:	02f707b3          	mul	a5,a4,a5
    1a52:	02d7c7b3          	div	a5,a5,a3
    1a56:	16e05763          	blez	a4,1bc4 <Calibration_LSI+0x3d2>
    1a5a:	0785                	addi	a5,a5,1
    1a5c:	4709                	li	a4,2
    1a5e:	02e7c7b3          	div	a5,a5,a4
    1a62:	40022737          	lui	a4,0x40022
    1a66:	3b76                	lhu	a3,54(a4)
    1a68:	0796                	slli	a5,a5,0x5
    1a6a:	97b6                	add	a5,a5,a3
    1a6c:	07c2                	slli	a5,a5,0x10
    1a6e:	83c1                	srli	a5,a5,0x10
    1a70:	bb7e                	sh	a5,54(a4)
    1a72:	04974783          	lbu	a5,73(a4) # 40022049 <_eusrstack+0x20012049>
    1a76:	66a1                	lui	a3,0x8
    1a78:	0f07f793          	andi	a5,a5,240
    1a7c:	04f704a3          	sb	a5,73(a4)
    1a80:	04974783          	lbu	a5,73(a4)
    1a84:	8fc5                	or	a5,a5,s1
    1a86:	0ff7f793          	andi	a5,a5,255
    1a8a:	04f704a3          	sb	a5,73(a4)
    1a8e:	04f74783          	lbu	a5,79(a4)
    1a92:	0fd7f793          	andi	a5,a5,253
    1a96:	04f707a3          	sb	a5,79(a4)
    1a9a:	04f74783          	lbu	a5,79(a4)
    1a9e:	0027e793          	ori	a5,a5,2
    1aa2:	04f707a3          	sb	a5,79(a4)
    1aa6:	04c75783          	lhu	a5,76(a4)
    1aaa:	8fd5                	or	a5,a5,a3
    1aac:	04f71623          	sh	a5,76(a4)
    1ab0:	04c75783          	lhu	a5,76(a4)
    1ab4:	6691                	lui	a3,0x4
    1ab6:	8fd5                	or	a5,a5,a3
    1ab8:	04f71623          	sh	a5,76(a4)
    1abc:	400226b7          	lui	a3,0x40022
    1ac0:	04c6d703          	lhu	a4,76(a3) # 4002204c <_eusrstack+0x2001204c>
    1ac4:	02c68793          	addi	a5,a3,44
    1ac8:	0742                	slli	a4,a4,0x10
    1aca:	8741                	srai	a4,a4,0x10
    1acc:	fe075ae3          	bgez	a4,1ac0 <Calibration_LSI+0x2ce>
    1ad0:	04c6d703          	lhu	a4,76(a3)
    1ad4:	04f6c703          	lbu	a4,79(a3)
    1ad8:	0fd77713          	andi	a4,a4,253
    1adc:	04e687a3          	sb	a4,79(a3)
    1ae0:	04f6c703          	lbu	a4,79(a3)
    1ae4:	00276713          	ori	a4,a4,2
    1ae8:	04e687a3          	sb	a4,79(a3)
    1aec:	04c6d703          	lhu	a4,76(a3)
    1af0:	66a1                	lui	a3,0x8
    1af2:	8f55                	or	a4,a4,a3
    1af4:	b39a                	sh	a4,32(a5)
    1af6:	339a                	lhu	a4,32(a5)
    1af8:	6691                	lui	a3,0x4
    1afa:	8f55                	or	a4,a4,a3
    1afc:	b39a                	sh	a4,32(a5)
    1afe:	393d                	jal	173c <RTC_GetCounter>
    1b00:	89aa                	mv	s3,a0
    1b02:	392d                	jal	173c <RTC_GetCounter>
    1b04:	ff350fe3          	beq	a0,s3,1b02 <Calibration_LSI+0x310>
    1b08:	400227b7          	lui	a5,0x40022
    1b0c:	04c7d703          	lhu	a4,76(a5) # 4002204c <_eusrstack+0x2001204c>
    1b10:	6691                	lui	a3,0x4
    1b12:	8f55                	or	a4,a4,a3
    1b14:	04e79623          	sh	a4,76(a5)
    1b18:	40022737          	lui	a4,0x40022
    1b1c:	04c75783          	lhu	a5,76(a4) # 4002204c <_eusrstack+0x2001204c>
    1b20:	07c2                	slli	a5,a5,0x10
    1b22:	87c1                	srai	a5,a5,0x10
    1b24:	fe07cce3          	bltz	a5,1b1c <Calibration_LSI+0x32a>
    1b28:	400226b7          	lui	a3,0x40022
    1b2c:	04c6d703          	lhu	a4,76(a3) # 4002204c <_eusrstack+0x2001204c>
    1b30:	0742                	slli	a4,a4,0x10
    1b32:	8741                	srai	a4,a4,0x10
    1b34:	fe075ce3          	bgez	a4,1b2c <Calibration_LSI+0x33a>
    1b38:	04f6c703          	lbu	a4,79(a3)
    1b3c:	6791                	lui	a5,0x4
    1b3e:	17fd                	addi	a5,a5,-1
    1b40:	0fd77713          	andi	a4,a4,253
    1b44:	04e687a3          	sb	a4,79(a3)
    1b48:	04c6d703          	lhu	a4,76(a3)
    1b4c:	04e6c683          	lbu	a3,78(a3)
    1b50:	8f7d                	and	a4,a4,a5
    1b52:	02d787b3          	mul	a5,a5,a3
    1b56:	973e                	add	a4,a4,a5
    1b58:	6789                	lui	a5,0x2
    1b5a:	f4078793          	addi	a5,a5,-192 # 1f40 <HAL_ProcessEvent+0x4e>
    1b5e:	009797b3          	sll	a5,a5,s1
    1b62:	03278933          	mul	s2,a5,s2
    1b66:	10000793          	li	a5,256
    1b6a:	02f94933          	div	s2,s2,a5
    1b6e:	0c800793          	li	a5,200
    1b72:	090e                	slli	s2,s2,0x3
    1b74:	41270933          	sub	s2,a4,s2
    1b78:	4705                	li	a4,1
    1b7a:	009714b3          	sll	s1,a4,s1
    1b7e:	4711                	li	a4,4
    1b80:	02e4c4b3          	div	s1,s1,a4
    1b84:	6725                	lui	a4,0x9
    1b86:	ca070713          	addi	a4,a4,-864 # 8ca0 <_data_lma+0x2d9c>
    1b8a:	02848433          	mul	s0,s1,s0
    1b8e:	2ec00493          	li	s1,748
    1b92:	02940433          	mul	s0,s0,s1
    1b96:	02e44433          	div	s0,s0,a4
    1b9a:	02f907b3          	mul	a5,s2,a5
    1b9e:	0287c7b3          	div	a5,a5,s0
    1ba2:	03205363          	blez	s2,1bc8 <Calibration_LSI+0x3d6>
    1ba6:	0785                	addi	a5,a5,1
    1ba8:	4709                	li	a4,2
    1baa:	02e7c7b3          	div	a5,a5,a4
    1bae:	40022737          	lui	a4,0x40022
    1bb2:	3b76                	lhu	a3,54(a4)
    1bb4:	0796                	slli	a5,a5,0x5
    1bb6:	97b6                	add	a5,a5,a3
    1bb8:	07c2                	slli	a5,a5,0x10
    1bba:	83c1                	srli	a5,a5,0x10
    1bbc:	bb7e                	sh	a5,54(a4)
    1bbe:	0141                	addi	sp,sp,16
    1bc0:	6670206f          	j	4a26 <__riscv_restore_12>
    1bc4:	17fd                	addi	a5,a5,-1
    1bc6:	bd59                	j	1a5c <Calibration_LSI+0x26a>
    1bc8:	17fd                	addi	a5,a5,-1
    1bca:	bff9                	j	1ba8 <Calibration_LSI+0x3b6>

00001bcc <USART_Init>:
    1bcc:	64f022ef          	jal	t0,4a1a <__riscv_save_0>
    1bd0:	2916                	lhu	a3,16(a0)
    1bd2:	77f5                	lui	a5,0xffffd
    1bd4:	17fd                	addi	a5,a5,-1
    1bd6:	8ff5                	and	a5,a5,a3
    1bd8:	21f6                	lhu	a3,6(a1)
    1bda:	25da                	lhu	a4,12(a1)
    1bdc:	7179                	addi	sp,sp,-48
    1bde:	8fd5                	or	a5,a5,a3
    1be0:	a91e                	sh	a5,16(a0)
    1be2:	2556                	lhu	a3,12(a0)
    1be4:	77fd                	lui	a5,0xfffff
    1be6:	9f378793          	addi	a5,a5,-1549 # ffffe9f3 <_eusrstack+0xdffee9f3>
    1bea:	8ff5                	and	a5,a5,a3
    1bec:	21d6                	lhu	a3,4(a1)
    1bee:	842a                	mv	s0,a0
    1bf0:	c62e                	sw	a1,12(sp)
    1bf2:	8fd5                	or	a5,a5,a3
    1bf4:	2596                	lhu	a3,8(a1)
    1bf6:	8fd5                	or	a5,a5,a3
    1bf8:	25b6                	lhu	a3,10(a1)
    1bfa:	8fd5                	or	a5,a5,a3
    1bfc:	a55e                	sh	a5,12(a0)
    1bfe:	295e                	lhu	a5,20(a0)
    1c00:	07c2                	slli	a5,a5,0x10
    1c02:	83c1                	srli	a5,a5,0x10
    1c04:	cff7f793          	andi	a5,a5,-769
    1c08:	8fd9                	or	a5,a5,a4
    1c0a:	a95e                	sh	a5,20(a0)
    1c0c:	0868                	addi	a0,sp,28
    1c0e:	326d                	jal	15b8 <RCC_GetClocksFreq>
    1c10:	400147b7          	lui	a5,0x40014
    1c14:	80078793          	addi	a5,a5,-2048 # 40013800 <_eusrstack+0x20003800>
    1c18:	45b2                	lw	a1,12(sp)
    1c1a:	04f41a63          	bne	s0,a5,1c6e <USART_Init+0xa2>
    1c1e:	57a2                	lw	a5,40(sp)
    1c20:	2456                	lhu	a3,12(s0)
    1c22:	4765                	li	a4,25
    1c24:	02e787b3          	mul	a5,a5,a4
    1c28:	06c2                	slli	a3,a3,0x10
    1c2a:	86c1                	srai	a3,a3,0x10
    1c2c:	4198                	lw	a4,0(a1)
    1c2e:	0406d263          	bgez	a3,1c72 <USART_Init+0xa6>
    1c32:	0706                	slli	a4,a4,0x1
    1c34:	2452                	lhu	a2,12(s0)
    1c36:	0642                	slli	a2,a2,0x10
    1c38:	02e7d7b3          	divu	a5,a5,a4
    1c3c:	06400713          	li	a4,100
    1c40:	8641                	srai	a2,a2,0x10
    1c42:	02e7d6b3          	divu	a3,a5,a4
    1c46:	02e7f7b3          	remu	a5,a5,a4
    1c4a:	0692                	slli	a3,a3,0x4
    1c4c:	02065563          	bgez	a2,1c76 <USART_Init+0xaa>
    1c50:	078e                	slli	a5,a5,0x3
    1c52:	03278793          	addi	a5,a5,50
    1c56:	02e7d7b3          	divu	a5,a5,a4
    1c5a:	0077f713          	andi	a4,a5,7
    1c5e:	00d767b3          	or	a5,a4,a3
    1c62:	07c2                	slli	a5,a5,0x10
    1c64:	83c1                	srli	a5,a5,0x10
    1c66:	a41e                	sh	a5,8(s0)
    1c68:	6145                	addi	sp,sp,48
    1c6a:	5d50206f          	j	4a3e <__riscv_restore_0>
    1c6e:	5792                	lw	a5,36(sp)
    1c70:	bf45                	j	1c20 <USART_Init+0x54>
    1c72:	070a                	slli	a4,a4,0x2
    1c74:	b7c1                	j	1c34 <USART_Init+0x68>
    1c76:	0792                	slli	a5,a5,0x4
    1c78:	03278793          	addi	a5,a5,50
    1c7c:	02e7d7b3          	divu	a5,a5,a4
    1c80:	8bbd                	andi	a5,a5,15
    1c82:	8fd5                	or	a5,a5,a3
    1c84:	bff9                	j	1c62 <USART_Init+0x96>

00001c86 <USART_Cmd>:
    1c86:	c591                	beqz	a1,1c92 <USART_Cmd+0xc>
    1c88:	255e                	lhu	a5,12(a0)
    1c8a:	6709                	lui	a4,0x2
    1c8c:	8fd9                	or	a5,a5,a4
    1c8e:	a55e                	sh	a5,12(a0)
    1c90:	8082                	ret
    1c92:	255a                	lhu	a4,12(a0)
    1c94:	77f9                	lui	a5,0xffffe
    1c96:	17fd                	addi	a5,a5,-1
    1c98:	8ff9                	and	a5,a5,a4
    1c9a:	bfd5                	j	1c8e <USART_Cmd+0x8>

00001c9c <USART_SendData>:
    1c9c:	1ff5f593          	andi	a1,a1,511
    1ca0:	a14e                	sh	a1,4(a0)
    1ca2:	8082                	ret

00001ca4 <USART_GetFlagStatus>:
    1ca4:	210a                	lhu	a0,0(a0)
    1ca6:	8d6d                	and	a0,a0,a1
    1ca8:	00a03533          	snez	a0,a0
    1cac:	8082                	ret

00001cae <Delay_Init>:
    1cae:	8081a783          	lw	a5,-2040(gp) # 20000078 <SystemCoreClock>
    1cb2:	007a1737          	lui	a4,0x7a1
    1cb6:	20070713          	addi	a4,a4,512 # 7a1200 <_data_lma+0x79b2fc>
    1cba:	02e7d7b3          	divu	a5,a5,a4
    1cbe:	0ff7f793          	andi	a5,a5,255
    1cc2:	80f18923          	sb	a5,-2030(gp) # 20000082 <p_us>
    1cc6:	3e800713          	li	a4,1000
    1cca:	02e787b3          	mul	a5,a5,a4
    1cce:	80f19823          	sh	a5,-2032(gp) # 20000080 <_edata>
    1cd2:	8082                	ret

00001cd4 <Delay_Us>:
    1cd4:	e000f7b7          	lui	a5,0xe000f
    1cd8:	43d8                	lw	a4,4(a5)
    1cda:	4681                	li	a3,0
    1cdc:	9b79                	andi	a4,a4,-2
    1cde:	c3d8                	sw	a4,4(a5)
    1ce0:	8121c703          	lbu	a4,-2030(gp) # 20000082 <p_us>
    1ce4:	02a70633          	mul	a2,a4,a0
    1ce8:	cb90                	sw	a2,16(a5)
    1cea:	cbd4                	sw	a3,20(a5)
    1cec:	4398                	lw	a4,0(a5)
    1cee:	01076713          	ori	a4,a4,16
    1cf2:	c398                	sw	a4,0(a5)
    1cf4:	4398                	lw	a4,0(a5)
    1cf6:	02176713          	ori	a4,a4,33
    1cfa:	c398                	sw	a4,0(a5)
    1cfc:	43d8                	lw	a4,4(a5)
    1cfe:	8b05                	andi	a4,a4,1
    1d00:	df75                	beqz	a4,1cfc <Delay_Us+0x28>
    1d02:	4398                	lw	a4,0(a5)
    1d04:	9b79                	andi	a4,a4,-2
    1d06:	c398                	sw	a4,0(a5)
    1d08:	8082                	ret

00001d0a <USART_Printf_Init>:
    1d0a:	511022ef          	jal	t0,4a1a <__riscv_save_0>
    1d0e:	842a                	mv	s0,a0
    1d10:	6511                	lui	a0,0x4
    1d12:	1101                	addi	sp,sp,-32
    1d14:	4585                	li	a1,1
    1d16:	0511                	addi	a0,a0,4
    1d18:	3245                	jal	16b8 <RCC_APB2PeriphClockCmd>
    1d1a:	20000793          	li	a5,512
    1d1e:	827c                	sh	a5,4(sp)
    1d20:	40011537          	lui	a0,0x40011
    1d24:	478d                	li	a5,3
    1d26:	c43e                	sw	a5,8(sp)
    1d28:	004c                	addi	a1,sp,4
    1d2a:	47e1                	li	a5,24
    1d2c:	80050513          	addi	a0,a0,-2048 # 40010800 <_eusrstack+0x20000800>
    1d30:	c63e                	sw	a5,12(sp)
    1d32:	f36ff0ef          	jal	ra,1468 <GPIO_Init>
    1d36:	c822                	sw	s0,16(sp)
    1d38:	40014437          	lui	s0,0x40014
    1d3c:	000807b7          	lui	a5,0x80
    1d40:	080c                	addi	a1,sp,16
    1d42:	80040513          	addi	a0,s0,-2048 # 40013800 <_eusrstack+0x20003800>
    1d46:	cc3e                	sw	a5,24(sp)
    1d48:	ca02                	sw	zero,20(sp)
    1d4a:	00011e23          	sh	zero,28(sp)
    1d4e:	3dbd                	jal	1bcc <USART_Init>
    1d50:	4585                	li	a1,1
    1d52:	80040513          	addi	a0,s0,-2048
    1d56:	3f05                	jal	1c86 <USART_Cmd>
    1d58:	6105                	addi	sp,sp,32
    1d5a:	4e50206f          	j	4a3e <__riscv_restore_0>

00001d5e <_write>:
    1d5e:	4a3022ef          	jal	t0,4a00 <__riscv_save_4>
    1d62:	400144b7          	lui	s1,0x40014
    1d66:	89ae                	mv	s3,a1
    1d68:	8932                	mv	s2,a2
    1d6a:	4401                	li	s0,0
    1d6c:	80048493          	addi	s1,s1,-2048 # 40013800 <_eusrstack+0x20003800>
    1d70:	01244563          	blt	s0,s2,1d7a <_write+0x1c>
    1d74:	854a                	mv	a0,s2
    1d76:	4bf0206f          	j	4a34 <__riscv_restore_4>
    1d7a:	04000593          	li	a1,64
    1d7e:	8526                	mv	a0,s1
    1d80:	3715                	jal	1ca4 <USART_GetFlagStatus>
    1d82:	dd65                	beqz	a0,1d7a <_write+0x1c>
    1d84:	008987b3          	add	a5,s3,s0
    1d88:	00078583          	lb	a1,0(a5) # 80000 <_data_lma+0x7a0fc>
    1d8c:	8526                	mv	a0,s1
    1d8e:	0405                	addi	s0,s0,1
    1d90:	05c2                	slli	a1,a1,0x10
    1d92:	81c1                	srli	a1,a1,0x10
    1d94:	3721                	jal	1c9c <USART_SendData>
    1d96:	bfe9                	j	1d70 <_write+0x12>

00001d98 <_sbrk>:
    1d98:	80418713          	addi	a4,gp,-2044 # 20000074 <curbrk.4642>
    1d9c:	431c                	lw	a5,0(a4)
    1d9e:	200026b7          	lui	a3,0x20002
    1da2:	edc68693          	addi	a3,a3,-292 # 20001edc <_ebss>
    1da6:	953e                	add	a0,a0,a5
    1da8:	00d56b63          	bltu	a0,a3,1dbe <_sbrk+0x26>
    1dac:	200106b7          	lui	a3,0x20010
    1db0:	00068693          	mv	a3,a3
    1db4:	00a6e563          	bltu	a3,a0,1dbe <_sbrk+0x26>
    1db8:	c308                	sw	a0,0(a4)
    1dba:	853e                	mv	a0,a5
    1dbc:	8082                	ret
    1dbe:	57fd                	li	a5,-1
    1dc0:	bfed                	j	1dba <_sbrk+0x22>

00001dc2 <Lib_Calibration_LSI>:
    1dc2:	459022ef          	jal	t0,4a1a <__riscv_save_0>
    1dc6:	450d                	li	a0,3
    1dc8:	342d                	jal	17f2 <Calibration_LSI>
    1dca:	4750206f          	j	4a3e <__riscv_restore_0>

00001dce <Lib_Read_Flash>:
    1dce:	44d022ef          	jal	t0,4a1a <__riscv_save_0>
    1dd2:	87b2                	mv	a5,a2
    1dd4:	00259613          	slli	a2,a1,0x2
    1dd8:	85aa                	mv	a1,a0
    1dda:	853e                	mv	a0,a5
    1ddc:	d10fe0ef          	jal	ra,2ec <tmos_memcpy>
    1de0:	4501                	li	a0,0
    1de2:	45d0206f          	j	4a3e <__riscv_restore_0>

00001de6 <Lib_Write_Flash>:
    1de6:	435022ef          	jal	t0,4a1a <__riscv_save_0>
    1dea:	1141                	addi	sp,sp,-16
    1dec:	842a                	mv	s0,a0
    1dee:	c632                	sw	a2,12(sp)
    1df0:	d98ff0ef          	jal	ra,1388 <FLASH_Unlock_Fast>
    1df4:	8522                	mv	a0,s0
    1df6:	dbaff0ef          	jal	ra,13b0 <FLASH_ErasePage_Fast>
    1dfa:	4632                	lw	a2,12(sp)
    1dfc:	8522                	mv	a0,s0
    1dfe:	85b2                	mv	a1,a2
    1e00:	ddeff0ef          	jal	ra,13de <FLASH_ProgramPage_Fast>
    1e04:	da2ff0ef          	jal	ra,13a6 <FLASH_Lock_Fast>
    1e08:	4505                	li	a0,1
    1e0a:	35e9                	jal	1cd4 <Delay_Us>
    1e0c:	4501                	li	a0,0
    1e0e:	0141                	addi	sp,sp,16
    1e10:	42f0206f          	j	4a3e <__riscv_restore_0>

00001e14 <HAL_GetInterTempValue>:
    1e14:	3df022ef          	jal	t0,49f2 <__riscv_save_10>
    1e18:	1101                	addi	sp,sp,-32
    1e1a:	02000613          	li	a2,32
    1e1e:	4581                	li	a1,0
    1e20:	850a                	mv	a0,sp
    1e22:	429020ef          	jal	ra,4a4a <memset>
    1e26:	40012437          	lui	s0,0x40012
    1e2a:	40040413          	addi	s0,s0,1024 # 40012400 <_eusrstack+0x20002400>
    1e2e:	400217b7          	lui	a5,0x40021
    1e32:	4585                	li	a1,1
    1e34:	20000513          	li	a0,512
    1e38:	0187ab83          	lw	s7,24(a5) # 40021018 <_eusrstack+0x20011018>
    1e3c:	0047ac03          	lw	s8,4(a5)
    1e40:	00442b03          	lw	s6,4(s0)
    1e44:	00842a83          	lw	s5,8(s0)
    1e48:	02c42a03          	lw	s4,44(s0)
    1e4c:	03442983          	lw	s3,52(s0)
    1e50:	00c42903          	lw	s2,12(s0)
    1e54:	865ff0ef          	jal	ra,16b8 <RCC_APB2PeriphClockCmd>
    1e58:	6531                	lui	a0,0xc
    1e5a:	ee4ff0ef          	jal	ra,153e <RCC_ADCCLKConfig>
    1e5e:	8522                	mv	a0,s0
    1e60:	b50ff0ef          	jal	ra,11b0 <ADC_DeInit>
    1e64:	000e07b7          	lui	a5,0xe0
    1e68:	c63e                	sw	a5,12(sp)
    1e6a:	858a                	mv	a1,sp
    1e6c:	4785                	li	a5,1
    1e6e:	8522                	mv	a0,s0
    1e70:	00f10a23          	sb	a5,20(sp)
    1e74:	c002                	sw	zero,0(sp)
    1e76:	c202                	sw	zero,4(sp)
    1e78:	c402                	sw	zero,8(sp)
    1e7a:	c802                	sw	zero,16(sp)
    1e7c:	b74ff0ef          	jal	ra,11f0 <ADC_Init>
    1e80:	4585                	li	a1,1
    1e82:	8522                	mv	a0,s0
    1e84:	bc2ff0ef          	jal	ra,1246 <ADC_Cmd>
    1e88:	4585                	li	a1,1
    1e8a:	8522                	mv	a0,s0
    1e8c:	cccff0ef          	jal	ra,1358 <ADC_BufferCmd>
    1e90:	4505                	li	a0,1
    1e92:	c9cff0ef          	jal	ra,132e <ADC_TempSensorVrefintCmd>
    1e96:	469d                	li	a3,7
    1e98:	4605                	li	a2,1
    1e9a:	45c1                	li	a1,16
    1e9c:	8522                	mv	a0,s0
    1e9e:	bd0ff0ef          	jal	ra,126e <ADC_RegularChannelConfig>
    1ea2:	4585                	li	a1,1
    1ea4:	8522                	mv	a0,s0
    1ea6:	bb0ff0ef          	jal	ra,1256 <ADC_SoftwareStartConvCmd>
    1eaa:	400124b7          	lui	s1,0x40012
    1eae:	4589                	li	a1,2
    1eb0:	8522                	mv	a0,s0
    1eb2:	c9cff0ef          	jal	ra,134e <ADC_GetFlagStatus>
    1eb6:	dd65                	beqz	a0,1eae <HAL_GetInterTempValue+0x9a>
    1eb8:	40048513          	addi	a0,s1,1024 # 40012400 <_eusrstack+0x20002400>
    1ebc:	c6aff0ef          	jal	ra,1326 <ADC_GetConversionValue>
    1ec0:	842a                	mv	s0,a0
    1ec2:	40048513          	addi	a0,s1,1024
    1ec6:	aeaff0ef          	jal	ra,11b0 <ADC_DeInit>
    1eca:	400217b7          	lui	a5,0x40021
    1ece:	0177ac23          	sw	s7,24(a5) # 40021018 <_eusrstack+0x20011018>
    1ed2:	0187a223          	sw	s8,4(a5)
    1ed6:	4164a223          	sw	s6,1028(s1)
    1eda:	4154a423          	sw	s5,1032(s1)
    1ede:	4344a623          	sw	s4,1068(s1)
    1ee2:	4334aa23          	sw	s3,1076(s1)
    1ee6:	4124a623          	sw	s2,1036(s1)
    1eea:	8522                	mv	a0,s0
    1eec:	6105                	addi	sp,sp,32
    1eee:	33d0206f          	j	4a2a <__riscv_restore_10>

00001ef2 <HAL_ProcessEvent>:
    1ef2:	329022ef          	jal	t0,4a1a <__riscv_save_0>
    1ef6:	01059793          	slli	a5,a1,0x10
    1efa:	87c1                	srai	a5,a5,0x10
    1efc:	842e                	mv	s0,a1
    1efe:	0007da63          	bgez	a5,1f12 <HAL_ProcessEvent+0x20>
    1f02:	aa0fe0ef          	jal	ra,1a2 <tmos_msg_receive>
    1f06:	c111                	beqz	a0,1f0a <HAL_ProcessEvent+0x18>
    1f08:	269d                	jal	226e <tmos_msg_deallocate>
    1f0a:	6521                	lui	a0,0x8
    1f0c:	8d21                	xor	a0,a0,s0
    1f0e:	3310206f          	j	4a3e <__riscv_restore_0>
    1f12:	0015f793          	andi	a5,a1,1
    1f16:	0015c513          	xori	a0,a1,1
    1f1a:	fbf5                	bnez	a5,1f0e <HAL_ProcessEvent+0x1c>
    1f1c:	01259793          	slli	a5,a1,0x12
    1f20:	0007df63          	bgez	a5,1f3e <HAL_ProcessEvent+0x4c>
    1f24:	17c010ef          	jal	ra,30a0 <BLE_RegInit>
    1f28:	3d69                	jal	1dc2 <Lib_Calibration_LSI>
    1f2a:	8131c503          	lbu	a0,-2029(gp) # 20000083 <halTaskID>
    1f2e:	0002f637          	lui	a2,0x2f
    1f32:	e0060613          	addi	a2,a2,-512 # 2ee00 <_data_lma+0x28efc>
    1f36:	6589                	lui	a1,0x2
    1f38:	21e1                	jal	2400 <tmos_start_task>
    1f3a:	6509                	lui	a0,0x2
    1f3c:	bfc1                	j	1f0c <HAL_ProcessEvent+0x1a>
    1f3e:	01159793          	slli	a5,a1,0x11
    1f42:	4501                	li	a0,0
    1f44:	fc07d5e3          	bgez	a5,1f0e <HAL_ProcessEvent+0x1c>
    1f48:	00006537          	lui	a0,0x6
    1f4c:	cfc50513          	addi	a0,a0,-772 # 5cfc <_read+0x10>
    1f50:	4b7020ef          	jal	ra,4c06 <puts>
    1f54:	8131c503          	lbu	a0,-2029(gp) # 20000083 <halTaskID>
    1f58:	64000613          	li	a2,1600
    1f5c:	6591                	lui	a1,0x4
    1f5e:	214d                	jal	2400 <tmos_start_task>
    1f60:	6511                	lui	a0,0x4
    1f62:	b76d                	j	1f0c <HAL_ProcessEvent+0x1a>

00001f64 <WCHBLE_Init>:
    1f64:	2b7022ef          	jal	t0,4a1a <__riscv_save_0>
    1f68:	000065b7          	lui	a1,0x6
    1f6c:	6519                	lui	a0,0x6
    1f6e:	715d                	addi	sp,sp,-80
    1f70:	4655                	li	a2,21
    1f72:	d0058593          	addi	a1,a1,-768 # 5d00 <_read+0x14>
    1f76:	d4c50513          	addi	a0,a0,-692 # 5d4c <VER_LIB>
    1f7a:	bfefe0ef          	jal	ra,378 <tmos_memcmp>
    1f7e:	e901                	bnez	a0,1f8e <WCHBLE_Init+0x2a>
    1f80:	00006537          	lui	a0,0x6
    1f84:	d1850513          	addi	a0,a0,-744 # 5d18 <_read+0x2c>
    1f88:	47f020ef          	jal	ra,4c06 <puts>
    1f8c:	a001                	j	1f8c <WCHBLE_Init+0x28>
    1f8e:	400227b7          	lui	a5,0x40022
    1f92:	57d8                	lw	a4,44(a5)
    1f94:	900006b7          	lui	a3,0x90000
    1f98:	16fd                	addi	a3,a3,-1
    1f9a:	8f75                	and	a4,a4,a3
    1f9c:	d7d8                	sw	a4,44(a5)
    1f9e:	57d8                	lw	a4,44(a5)
    1fa0:	300006b7          	lui	a3,0x30000
    1fa4:	04000613          	li	a2,64
    1fa8:	8f55                	or	a4,a4,a3
    1faa:	d7d8                	sw	a4,44(a5)
    1fac:	57d8                	lw	a4,44(a5)
    1fae:	030006b7          	lui	a3,0x3000
    1fb2:	4581                	li	a1,0
    1fb4:	8f55                	or	a4,a4,a3
    1fb6:	d7d8                	sw	a4,44(a5)
    1fb8:	0808                	addi	a0,sp,16
    1fba:	b66fe0ef          	jal	ra,320 <tmos_memset>
    1fbe:	200007b7          	lui	a5,0x20000
    1fc2:	09478793          	addi	a5,a5,148 # 20000094 <MEM_BUF>
    1fc6:	c83e                	sw	a5,16(sp)
    1fc8:	6789                	lui	a5,0x2
    1fca:	c0078793          	addi	a5,a5,-1024 # 1c00 <USART_Init+0x34>
    1fce:	82fc                	sh	a5,20(sp)
    1fd0:	080787b7          	lui	a5,0x8078
    1fd4:	c0078793          	addi	a5,a5,-1024 # 8077c00 <_data_lma+0x8071cfc>
    1fd8:	cc3e                	sw	a5,24(sp)
    1fda:	50300793          	li	a5,1283
    1fde:	87fc                	sh	a5,30(sp)
    1fe0:	47ed                	li	a5,27
    1fe2:	02f11023          	sh	a5,32(sp)
    1fe6:	4785                	li	a5,1
    1fe8:	02f10123          	sb	a5,34(sp)
    1fec:	000027b7          	lui	a5,0x2
    1ff0:	dce78793          	addi	a5,a5,-562 # 1dce <Lib_Read_Flash>
    1ff4:	c4be                	sw	a5,72(sp)
    1ff6:	000027b7          	lui	a5,0x2
    1ffa:	de678793          	addi	a5,a5,-538 # 1de6 <Lib_Write_Flash>
    1ffe:	c6be                	sw	a5,76(sp)
    2000:	6791                	lui	a5,0x4
    2002:	e8078793          	addi	a5,a5,-384 # 3e80 <RFEND_TXCtune+0x75c>
    2006:	02f11723          	sh	a5,46(sp)
    200a:	3e800793          	li	a5,1000
    200e:	02f11823          	sh	a5,48(sp)
    2012:	6785                	lui	a5,0x1
    2014:	d0978793          	addi	a5,a5,-759 # d09 <LLE_IRQLibHandler+0x1b9>
    2018:	02f11223          	sh	a5,36(sp)
    201c:	000027b7          	lui	a5,0x2
    2020:	e1478793          	addi	a5,a5,-492 # 1e14 <HAL_GetInterTempValue>
    2024:	de3e                	sw	a5,60(sp)
    2026:	000027b7          	lui	a5,0x2
    202a:	dc278793          	addi	a5,a5,-574 # 1dc2 <Lib_Calibration_LSI>
    202e:	0028                	addi	a0,sp,8
    2030:	c0be                	sw	a5,64(sp)
    2032:	c10ff0ef          	jal	ra,1442 <FLASH_GetMACAddress>
    2036:	0818                	addi	a4,sp,16
    2038:	4781                	li	a5,0
    203a:	4699                	li	a3,6
    203c:	0030                	addi	a2,sp,8
    203e:	963e                	add	a2,a2,a5
    2040:	2210                	lbu	a2,0(a2)
    2042:	0785                	addi	a5,a5,1
    2044:	0705                	addi	a4,a4,1
    2046:	bb70                	sb	a2,23(a4)
    2048:	fed79ae3          	bne	a5,a3,203c <WCHBLE_Init+0xd8>
    204c:	47c2                	lw	a5,16(sp)
    204e:	c789                	beqz	a5,2058 <WCHBLE_Init+0xf4>
    2050:	82b8                	lhu	a4,20(sp)
    2052:	6785                	lui	a5,0x1
    2054:	00f77363          	bgeu	a4,a5,205a <WCHBLE_Init+0xf6>
    2058:	a001                	j	2058 <WCHBLE_Init+0xf4>
    205a:	0808                	addi	a0,sp,16
    205c:	2d85                	jal	26cc <BLE_LibInit>
    205e:	85aa                	mv	a1,a0
    2060:	c901                	beqz	a0,2070 <WCHBLE_Init+0x10c>
    2062:	00006537          	lui	a0,0x6
    2066:	d2c50513          	addi	a0,a0,-724 # 5d2c <_read+0x40>
    206a:	289020ef          	jal	ra,4af2 <iprintf>
    206e:	a001                	j	206e <WCHBLE_Init+0x10a>
    2070:	4585                	li	a1,1
    2072:	04000513          	li	a0,64
    2076:	e24ff0ef          	jal	ra,169a <RCC_AHBPeriphClockCmd>
    207a:	e000e7b7          	lui	a5,0xe000e
    207e:	80000737          	lui	a4,0x80000
    2082:	10e7a223          	sw	a4,260(a5) # e000e104 <_eusrstack+0xbfffe104>
    2086:	4705                	li	a4,1
    2088:	10e7a423          	sw	a4,264(a5)
    208c:	6161                	addi	sp,sp,80
    208e:	1b10206f          	j	4a3e <__riscv_restore_0>

00002092 <HAL_Init>:
    2092:	189022ef          	jal	t0,4a1a <__riscv_save_0>
    2096:	00002537          	lui	a0,0x2
    209a:	ef250513          	addi	a0,a0,-270 # 1ef2 <HAL_ProcessEvent>
    209e:	2bcd                	jal	2690 <TMOS_ProcessEventRegister>
    20a0:	81318413          	addi	s0,gp,-2029 # 20000083 <halTaskID>
    20a4:	a008                	sb	a0,0(s0)
    20a6:	2839                	jal	20c4 <HAL_TimeInit>
    20a8:	2008                	lbu	a0,0(s0)
    20aa:	0002f637          	lui	a2,0x2f
    20ae:	e0060613          	addi	a2,a2,-512 # 2ee00 <_data_lma+0x28efc>
    20b2:	6589                	lui	a1,0x2
    20b4:	26b1                	jal	2400 <tmos_start_task>
    20b6:	2008                	lbu	a0,0(s0)
    20b8:	64000613          	li	a2,1600
    20bc:	6591                	lui	a1,0x4
    20be:	2689                	jal	2400 <tmos_start_task>
    20c0:	17f0206f          	j	4a3e <__riscv_restore_0>

000020c4 <HAL_TimeInit>:
    20c4:	157022ef          	jal	t0,4a1a <__riscv_save_0>
    20c8:	4585                	li	a1,1
    20ca:	18000537          	lui	a0,0x18000
    20ce:	e08ff0ef          	jal	ra,16d6 <RCC_APB1PeriphClockCmd>
    20d2:	4505                	li	a0,1
    20d4:	c54ff0ef          	jal	ra,1528 <PWR_BackupAccessCmd>
    20d8:	4505                	li	a0,1
    20da:	c9eff0ef          	jal	ra,1578 <RCC_LSICmd>
    20de:	4501                	li	a0,0
    20e0:	c70ff0ef          	jal	ra,1550 <RCC_LSEConfig>
    20e4:	20000513          	li	a0,512
    20e8:	ca4ff0ef          	jal	ra,158c <RCC_RTCCLKConfig>
    20ec:	4505                	li	a0,1
    20ee:	caaff0ef          	jal	ra,1598 <RCC_RTCCLKCmd>
    20f2:	ed2ff0ef          	jal	ra,17c4 <RTC_WaitForLastTask>
    20f6:	eceff0ef          	jal	ra,17c4 <RTC_WaitForLastTask>
    20fa:	4505                	li	a0,1
    20fc:	e9eff0ef          	jal	ra,179a <RTC_SetPrescaler>
    2100:	ec4ff0ef          	jal	ra,17c4 <RTC_WaitForLastTask>
    2104:	4501                	li	a0,0
    2106:	e6cff0ef          	jal	ra,1772 <RTC_SetCounter>
    210a:	ebaff0ef          	jal	ra,17c4 <RTC_WaitForLastTask>
    210e:	3955                	jal	1dc2 <Lib_Calibration_LSI>
    2110:	00001537          	lui	a0,0x1
    2114:	73c50513          	addi	a0,a0,1852 # 173c <RTC_GetCounter>
    2118:	770000ef          	jal	ra,2888 <TMOS_TimerInit>
    211c:	1230206f          	j	4a3e <__riscv_restore_0>

00002120 <RTCAlarm_IRQHandler>:
    2120:	db0fe0ef          	jal	ra,6d0 <TMOS_TimerIRQHandler>
    2124:	4705                	li	a4,1
    2126:	00020537          	lui	a0,0x20
    212a:	80e1aa23          	sw	a4,-2028(gp) # 20000084 <RTCTigFlag>
    212e:	a42ff0ef          	jal	ra,1370 <EXTI_ClearITPendingBit>
    2132:	4509                	li	a0,2
    2134:	eb4ff0ef          	jal	ra,17e8 <RTC_ClearITPendingBit>
    2138:	e8cff0ef          	jal	ra,17c4 <RTC_WaitForLastTask>
    213c:	30200073          	mret

00002140 <NMI_Handler>:
    2140:	30200073          	mret

00002144 <HardFault_Handler>:
    2144:	a001                	j	2144 <HardFault_Handler>

00002146 <BB_IRQHandler>:
    2146:	d8cfe0ef          	jal	ra,6d2 <BB_IRQLibHandler>
    214a:	30200073          	mret

0000214e <LLE_IRQHandler>:
    214e:	a03fe0ef          	jal	ra,b50 <LLE_IRQLibHandler>
    2152:	30200073          	mret

00002156 <main>:
    2156:	0c5022ef          	jal	t0,4a1a <__riscv_save_0>
    215a:	3e91                	jal	1cae <Delay_Init>
    215c:	6571                	lui	a0,0x1c
    215e:	20050513          	addi	a0,a0,512 # 1c200 <_data_lma+0x162fc>
    2162:	3665                	jal	1d0a <USART_Printf_Init>
    2164:	6519                	lui	a0,0x6
    2166:	d4c50513          	addi	a0,a0,-692 # 5d4c <VER_LIB>
    216a:	29d020ef          	jal	ra,4c06 <puts>
    216e:	3bdd                	jal	1f64 <WCHBLE_Init>
    2170:	370d                	jal	2092 <HAL_Init>
    2172:	80efe0ef          	jal	ra,180 <Main_Circulation>

00002176 <SystemInit>:
    2176:	400217b7          	lui	a5,0x40021
    217a:	4398                	lw	a4,0(a5)
    217c:	f8ff06b7          	lui	a3,0xf8ff0
    2180:	1141                	addi	sp,sp,-16
    2182:	00176713          	ori	a4,a4,1
    2186:	c398                	sw	a4,0(a5)
    2188:	43d8                	lw	a4,4(a5)
    218a:	00020637          	lui	a2,0x20
    218e:	8f75                	and	a4,a4,a3
    2190:	c3d8                	sw	a4,4(a5)
    2192:	4398                	lw	a4,0(a5)
    2194:	fef706b7          	lui	a3,0xfef70
    2198:	16fd                	addi	a3,a3,-1
    219a:	8f75                	and	a4,a4,a3
    219c:	c398                	sw	a4,0(a5)
    219e:	4398                	lw	a4,0(a5)
    21a0:	fffc06b7          	lui	a3,0xfffc0
    21a4:	16fd                	addi	a3,a3,-1
    21a6:	8f75                	and	a4,a4,a3
    21a8:	c398                	sw	a4,0(a5)
    21aa:	43d8                	lw	a4,4(a5)
    21ac:	ff8106b7          	lui	a3,0xff810
    21b0:	16fd                	addi	a3,a3,-1
    21b2:	8f75                	and	a4,a4,a3
    21b4:	c3d8                	sw	a4,4(a5)
    21b6:	009f0737          	lui	a4,0x9f0
    21ba:	c798                	sw	a4,8(a5)
    21bc:	c402                	sw	zero,8(sp)
    21be:	c602                	sw	zero,12(sp)
    21c0:	4398                	lw	a4,0(a5)
    21c2:	66c1                	lui	a3,0x10
    21c4:	8f55                	or	a4,a4,a3
    21c6:	c398                	sw	a4,0(a5)
    21c8:	400216b7          	lui	a3,0x40021
    21cc:	6705                	lui	a4,0x1
    21ce:	429c                	lw	a5,0(a3)
    21d0:	8ff1                	and	a5,a5,a2
    21d2:	c63e                	sw	a5,12(sp)
    21d4:	47a2                	lw	a5,8(sp)
    21d6:	0785                	addi	a5,a5,1
    21d8:	c43e                	sw	a5,8(sp)
    21da:	47b2                	lw	a5,12(sp)
    21dc:	e781                	bnez	a5,21e4 <SystemInit+0x6e>
    21de:	47a2                	lw	a5,8(sp)
    21e0:	fee797e3          	bne	a5,a4,21ce <SystemInit+0x58>
    21e4:	400217b7          	lui	a5,0x40021
    21e8:	439c                	lw	a5,0(a5)
    21ea:	00e79713          	slli	a4,a5,0xe
    21ee:	06075e63          	bgez	a4,226a <SystemInit+0xf4>
    21f2:	4785                	li	a5,1
    21f4:	c63e                	sw	a5,12(sp)
    21f6:	4732                	lw	a4,12(sp)
    21f8:	4785                	li	a5,1
    21fa:	06f71663          	bne	a4,a5,2266 <SystemInit+0xf0>
    21fe:	400217b7          	lui	a5,0x40021
    2202:	43d8                	lw	a4,4(a5)
    2204:	00c006b7          	lui	a3,0xc00
    2208:	8f55                	or	a4,a4,a3
    220a:	c3d8                	sw	a4,4(a5)
    220c:	43d8                	lw	a4,4(a5)
    220e:	ffc106b7          	lui	a3,0xffc10
    2212:	16fd                	addi	a3,a3,-1
    2214:	08076713          	ori	a4,a4,128
    2218:	c3d8                	sw	a4,4(a5)
    221a:	43d8                	lw	a4,4(a5)
    221c:	c3d8                	sw	a4,4(a5)
    221e:	43d8                	lw	a4,4(a5)
    2220:	40076713          	ori	a4,a4,1024
    2224:	c3d8                	sw	a4,4(a5)
    2226:	43d8                	lw	a4,4(a5)
    2228:	8f75                	and	a4,a4,a3
    222a:	c3d8                	sw	a4,4(a5)
    222c:	43d8                	lw	a4,4(a5)
    222e:	003506b7          	lui	a3,0x350
    2232:	8f55                	or	a4,a4,a3
    2234:	c3d8                	sw	a4,4(a5)
    2236:	4398                	lw	a4,0(a5)
    2238:	010006b7          	lui	a3,0x1000
    223c:	8f55                	or	a4,a4,a3
    223e:	c398                	sw	a4,0(a5)
    2240:	4398                	lw	a4,0(a5)
    2242:	00671693          	slli	a3,a4,0x6
    2246:	fe06dde3          	bgez	a3,2240 <SystemInit+0xca>
    224a:	43d8                	lw	a4,4(a5)
    224c:	400216b7          	lui	a3,0x40021
    2250:	9b71                	andi	a4,a4,-4
    2252:	c3d8                	sw	a4,4(a5)
    2254:	43d8                	lw	a4,4(a5)
    2256:	00276713          	ori	a4,a4,2
    225a:	c3d8                	sw	a4,4(a5)
    225c:	4721                	li	a4,8
    225e:	42dc                	lw	a5,4(a3)
    2260:	8bb1                	andi	a5,a5,12
    2262:	fee79ee3          	bne	a5,a4,225e <SystemInit+0xe8>
    2266:	0141                	addi	sp,sp,16
    2268:	8082                	ret
    226a:	c602                	sw	zero,12(sp)
    226c:	b769                	j	21f6 <SystemInit+0x80>

0000226e <tmos_msg_deallocate>:
    226e:	c10d                	beqz	a0,2290 <tmos_msg_deallocate+0x22>
    2270:	ffe54683          	lbu	a3,-2(a0)
    2274:	0ff00713          	li	a4,255
    2278:	4791                	li	a5,4
    227a:	00e69c63          	bne	a3,a4,2292 <tmos_msg_deallocate+0x24>
    227e:	1141                	addi	sp,sp,-16
    2280:	c606                	sw	ra,12(sp)
    2282:	d1bfe0ef          	jal	ra,f9c <tmos_memory_free>
    2286:	40b2                	lw	ra,12(sp)
    2288:	4781                	li	a5,0
    228a:	853e                	mv	a0,a5
    228c:	0141                	addi	sp,sp,16
    228e:	8082                	ret
    2290:	4795                	li	a5,5
    2292:	853e                	mv	a0,a5
    2294:	8082                	ret

00002296 <tmos_msg_init>:
    2296:	20000797          	auipc	a5,0x20000
    229a:	9e07af23          	sw	zero,-1538(a5) # 20001c94 <msg_qHead>
    229e:	8082                	ret

000022a0 <TMOS_CB_PeriodicProcessEvent>:
    22a0:	c1c9                	beqz	a1,2322 <TMOS_CB_PeriodicProcessEvent+0x82>
    22a2:	7179                	addi	sp,sp,-48
    22a4:	d422                	sw	s0,40(sp)
    22a6:	d606                	sw	ra,44(sp)
    22a8:	d226                	sw	s1,36(sp)
    22aa:	d04a                	sw	s2,32(sp)
    22ac:	ce4e                	sw	s3,28(sp)
    22ae:	4401                	li	s0,0
    22b0:	4741                	li	a4,16
    22b2:	4085d7b3          	sra	a5,a1,s0
    22b6:	8b85                	andi	a5,a5,1
    22b8:	c3a5                	beqz	a5,2318 <TMOS_CB_PeriodicProcessEvent+0x78>
    22ba:	0512                	slli	a0,a0,0x4
    22bc:	4731                	li	a4,12
    22be:	9522                	add	a0,a0,s0
    22c0:	02e50533          	mul	a0,a0,a4
    22c4:	20000797          	auipc	a5,0x20000
    22c8:	a6878793          	addi	a5,a5,-1432 # 20001d2c <cbTimersHead>
    22cc:	0007a903          	lw	s2,0(a5)
    22d0:	4485                	li	s1,1
    22d2:	008494b3          	sll	s1,s1,s0
    22d6:	04c2                	slli	s1,s1,0x10
    22d8:	80c1                	srli	s1,s1,0x10
    22da:	89be                	mv	s3,a5
    22dc:	992a                	add	s2,s2,a0
    22de:	00092703          	lw	a4,0(s2)
    22e2:	c711                	beqz	a4,22ee <TMOS_CB_PeriodicProcessEvent+0x4e>
    22e4:	00492503          	lw	a0,4(s2)
    22e8:	c62e                	sw	a1,12(sp)
    22ea:	9702                	jalr	a4
    22ec:	45b2                	lw	a1,12(sp)
    22ee:	4731                	li	a4,12
    22f0:	02e40433          	mul	s0,s0,a4
    22f4:	0009a783          	lw	a5,0(s3)
    22f8:	943e                	add	s0,s0,a5
    22fa:	441c                	lw	a5,8(s0)
    22fc:	e789                	bnez	a5,2306 <TMOS_CB_PeriodicProcessEvent+0x66>
    22fe:	00092023          	sw	zero,0(s2)
    2302:	00092223          	sw	zero,4(s2)
    2306:	50b2                	lw	ra,44(sp)
    2308:	5422                	lw	s0,40(sp)
    230a:	8da5                	xor	a1,a1,s1
    230c:	5902                	lw	s2,32(sp)
    230e:	5492                	lw	s1,36(sp)
    2310:	49f2                	lw	s3,28(sp)
    2312:	852e                	mv	a0,a1
    2314:	6145                	addi	sp,sp,48
    2316:	8082                	ret
    2318:	0405                	addi	s0,s0,1
    231a:	f8e41ce3          	bne	s0,a4,22b2 <TMOS_CB_PeriodicProcessEvent+0x12>
    231e:	4481                	li	s1,0
    2320:	b7dd                	j	2306 <TMOS_CB_PeriodicProcessEvent+0x66>
    2322:	852e                	mv	a0,a1
    2324:	8082                	ret

00002326 <TMOS_CB_ProcessEvent>:
    2326:	1141                	addi	sp,sp,-16
    2328:	01059713          	slli	a4,a1,0x10
    232c:	c422                	sw	s0,8(sp)
    232e:	c606                	sw	ra,12(sp)
    2330:	c226                	sw	s1,4(sp)
    2332:	c04a                	sw	s2,0(sp)
    2334:	8741                	srai	a4,a4,0x10
    2336:	842e                	mv	s0,a1
    2338:	00075f63          	bgez	a4,2356 <TMOS_CB_ProcessEvent+0x30>
    233c:	e67fd0ef          	jal	ra,1a2 <tmos_msg_receive>
    2340:	c111                	beqz	a0,2344 <TMOS_CB_ProcessEvent+0x1e>
    2342:	3735                	jal	226e <tmos_msg_deallocate>
    2344:	67a1                	lui	a5,0x8
    2346:	8c3d                	xor	s0,s0,a5
    2348:	8522                	mv	a0,s0
    234a:	40b2                	lw	ra,12(sp)
    234c:	4422                	lw	s0,8(sp)
    234e:	4492                	lw	s1,4(sp)
    2350:	4902                	lw	s2,0(sp)
    2352:	0141                	addi	sp,sp,16
    2354:	8082                	ret
    2356:	d9ed                	beqz	a1,2348 <TMOS_CB_ProcessEvent+0x22>
    2358:	87aa                	mv	a5,a0
    235a:	4701                	li	a4,0
    235c:	4641                	li	a2,16
    235e:	40e456b3          	sra	a3,s0,a4
    2362:	8a85                	andi	a3,a3,1
    2364:	ce8d                	beqz	a3,239e <TMOS_CB_ProcessEvent+0x78>
    2366:	0792                	slli	a5,a5,0x4
    2368:	97ba                	add	a5,a5,a4
    236a:	46b1                	li	a3,12
    236c:	02d787b3          	mul	a5,a5,a3
    2370:	20000697          	auipc	a3,0x20000
    2374:	9bc68693          	addi	a3,a3,-1604 # 20001d2c <cbTimersHead>
    2378:	0006a903          	lw	s2,0(a3)
    237c:	4485                	li	s1,1
    237e:	00e494b3          	sll	s1,s1,a4
    2382:	04c2                	slli	s1,s1,0x10
    2384:	80c1                	srli	s1,s1,0x10
    2386:	993e                	add	s2,s2,a5
    2388:	00092783          	lw	a5,0(s2)
    238c:	00492503          	lw	a0,4(s2)
    2390:	9782                	jalr	a5
    2392:	00092023          	sw	zero,0(s2)
    2396:	00092223          	sw	zero,4(s2)
    239a:	8c25                	xor	s0,s0,s1
    239c:	b775                	j	2348 <TMOS_CB_ProcessEvent+0x22>
    239e:	0705                	addi	a4,a4,1
    23a0:	fac71fe3          	bne	a4,a2,235e <TMOS_CB_ProcessEvent+0x38>
    23a4:	4481                	li	s1,0
    23a6:	bfd5                	j	239a <TMOS_CB_ProcessEvent+0x74>

000023a8 <tmos_set_event>:
    23a8:	20000797          	auipc	a5,0x20000
    23ac:	8f17c783          	lbu	a5,-1807(a5) # 20001c99 <gTmosPara+0x1>
    23b0:	00f57f63          	bgeu	a0,a5,23ce <tmos_set_event+0x26>
    23b4:	20000717          	auipc	a4,0x20000
    23b8:	93070713          	addi	a4,a4,-1744 # 20001ce4 <EventsArr>
    23bc:	00151793          	slli	a5,a0,0x1
    23c0:	4308                	lw	a0,0(a4)
    23c2:	953e                	add	a0,a0,a5
    23c4:	211e                	lhu	a5,0(a0)
    23c6:	8ddd                	or	a1,a1,a5
    23c8:	a10e                	sh	a1,0(a0)
    23ca:	4501                	li	a0,0
    23cc:	8082                	ret
    23ce:	450d                	li	a0,3
    23d0:	8082                	ret

000023d2 <tmos_clear_event>:
    23d2:	20000797          	auipc	a5,0x20000
    23d6:	8c77c783          	lbu	a5,-1849(a5) # 20001c99 <gTmosPara+0x1>
    23da:	02f57163          	bgeu	a0,a5,23fc <tmos_clear_event+0x2a>
    23de:	20000717          	auipc	a4,0x20000
    23e2:	90670713          	addi	a4,a4,-1786 # 20001ce4 <EventsArr>
    23e6:	00151793          	slli	a5,a0,0x1
    23ea:	4308                	lw	a0,0(a4)
    23ec:	fff5c593          	not	a1,a1
    23f0:	953e                	add	a0,a0,a5
    23f2:	211e                	lhu	a5,0(a0)
    23f4:	8dfd                	and	a1,a1,a5
    23f6:	a10e                	sh	a1,0(a0)
    23f8:	4501                	li	a0,0
    23fa:	8082                	ret
    23fc:	450d                	li	a0,3
    23fe:	8082                	ret

00002400 <tmos_start_task>:
    2400:	20000797          	auipc	a5,0x20000
    2404:	8997c783          	lbu	a5,-1895(a5) # 20001c99 <gTmosPara+0x1>
    2408:	00f56463          	bltu	a0,a5,2410 <tmos_start_task+0x10>
    240c:	4501                	li	a0,0
    240e:	8082                	ret
    2410:	1101                	addi	sp,sp,-32
    2412:	20000797          	auipc	a5,0x20000
    2416:	92278793          	addi	a5,a5,-1758 # 20001d34 <fnGetClockCBs>
    241a:	c64e                	sw	s3,12(sp)
    241c:	0007a983          	lw	s3,0(a5)
    2420:	ce06                	sw	ra,28(sp)
    2422:	cc22                	sw	s0,24(sp)
    2424:	ca26                	sw	s1,20(sp)
    2426:	c84a                	sw	s2,16(sp)
    2428:	08098c63          	beqz	s3,24c0 <tmos_start_task+0xc0>
    242c:	892e                	mv	s2,a1
    242e:	20000597          	auipc	a1,0x20000
    2432:	8dc5d583          	lhu	a1,-1828(a1) # 20001d0a <ble+0x1e>
    2436:	02c587b3          	mul	a5,a1,a2
    243a:	842a                	mv	s0,a0
    243c:	84b2                	mv	s1,a2
    243e:	4681                	li	a3,0
    2440:	02c5b5b3          	mulhu	a1,a1,a2
    2444:	32078513          	addi	a0,a5,800
    2448:	00f537b3          	sltu	a5,a0,a5
    244c:	64000613          	li	a2,1600
    2450:	95be                	add	a1,a1,a5
    2452:	206020ef          	jal	ra,4658 <__udivdi3>
    2456:	fe3647b7          	lui	a5,0xfe364
    245a:	c7f78793          	addi	a5,a5,-897 # fe363c7f <_eusrstack+0xde353c7f>
    245e:	06a7e163          	bltu	a5,a0,24c0 <tmos_start_task+0xc0>
    2462:	9982                	jalr	s3
    2464:	20000597          	auipc	a1,0x20000
    2468:	8a65d583          	lhu	a1,-1882(a1) # 20001d0a <ble+0x1e>
    246c:	029587b3          	mul	a5,a1,s1
    2470:	89aa                	mv	s3,a0
    2472:	64000613          	li	a2,1600
    2476:	4681                	li	a3,0
    2478:	0295b5b3          	mulhu	a1,a1,s1
    247c:	32078513          	addi	a0,a5,800
    2480:	00f537b3          	sltu	a5,a0,a5
    2484:	95be                	add	a1,a1,a5
    2486:	1d2020ef          	jal	ra,4658 <__udivdi3>
    248a:	99aa                	add	s3,s3,a0
    248c:	85ca                	mv	a1,s2
    248e:	8522                	mv	a0,s0
    2490:	d87fd0ef          	jal	ra,216 <tmosFindTask>
    2494:	c509                	beqz	a0,249e <tmos_start_task+0x9e>
    2496:	01352423          	sw	s3,8(a0)
    249a:	4505                	li	a0,1
    249c:	a01d                	j	24c2 <tmos_start_task+0xc2>
    249e:	f0046593          	ori	a1,s0,-256
    24a2:	05c2                	slli	a1,a1,0x10
    24a4:	81c1                	srli	a1,a1,0x10
    24a6:	4541                	li	a0,16
    24a8:	a2dfe0ef          	jal	ra,ed4 <tmos_memory_allocate>
    24ac:	e115                	bnez	a0,24d0 <tmos_start_task+0xd0>
    24ae:	20000797          	auipc	a5,0x20000
    24b2:	83e78793          	addi	a5,a5,-1986 # 20001cec <ble>
    24b6:	5bdc                	lw	a5,52(a5)
    24b8:	c781                	beqz	a5,24c0 <tmos_start_task+0xc0>
    24ba:	85a2                	mv	a1,s0
    24bc:	4511                	li	a0,4
    24be:	9782                	jalr	a5
    24c0:	4501                	li	a0,0
    24c2:	40f2                	lw	ra,28(sp)
    24c4:	4462                	lw	s0,24(sp)
    24c6:	44d2                	lw	s1,20(sp)
    24c8:	4942                	lw	s2,16(sp)
    24ca:	49b2                	lw	s3,12(sp)
    24cc:	6105                	addi	sp,sp,32
    24ce:	8082                	ret
    24d0:	20000797          	auipc	a5,0x20000
    24d4:	81878793          	addi	a5,a5,-2024 # 20001ce8 <taskHead>
    24d8:	439c                	lw	a5,0(a5)
    24da:	e395                	bnez	a5,24fe <tmos_start_task+0xfe>
    24dc:	20000797          	auipc	a5,0x20000
    24e0:	80a7a623          	sw	a0,-2036(a5) # 20001ce8 <taskHead>
    24e4:	4785                	li	a5,1
    24e6:	00052623          	sw	zero,12(a0)
    24ea:	01352423          	sw	s3,8(a0)
    24ee:	01251123          	sh	s2,2(a0)
    24f2:	a100                	sb	s0,0(a0)
    24f4:	b11c                	sb	a5,1(a0)
    24f6:	00052223          	sw	zero,4(a0)
    24fa:	b745                	j	249a <tmos_start_task+0x9a>
    24fc:	87ba                	mv	a5,a4
    24fe:	47d8                	lw	a4,12(a5)
    2500:	ff75                	bnez	a4,24fc <tmos_start_task+0xfc>
    2502:	c7c8                	sw	a0,12(a5)
    2504:	b7c5                	j	24e4 <tmos_start_task+0xe4>

00002506 <tmos_stop_task>:
    2506:	1141                	addi	sp,sp,-16
    2508:	c422                	sw	s0,8(sp)
    250a:	c226                	sw	s1,4(sp)
    250c:	c04a                	sw	s2,0(sp)
    250e:	c606                	sw	ra,12(sp)
    2510:	892a                	mv	s2,a0
    2512:	842e                	mv	s0,a1
    2514:	d03fd0ef          	jal	ra,216 <tmosFindTask>
    2518:	84aa                	mv	s1,a0
    251a:	c119                	beqz	a0,2520 <tmos_stop_task+0x1a>
    251c:	00051123          	sh	zero,2(a0)
    2520:	85a2                	mv	a1,s0
    2522:	854a                	mv	a0,s2
    2524:	357d                	jal	23d2 <tmos_clear_event>
    2526:	1ffff797          	auipc	a5,0x1ffff
    252a:	7727c783          	lbu	a5,1906(a5) # 20001c98 <gTmosPara>
    252e:	01279b63          	bne	a5,s2,2544 <tmos_stop_task+0x3e>
    2532:	1ffff797          	auipc	a5,0x1ffff
    2536:	7ae7d783          	lhu	a5,1966(a5) # 20001ce0 <eventsClear>
    253a:	8c5d                	or	s0,s0,a5
    253c:	1ffff797          	auipc	a5,0x1ffff
    2540:	7a879223          	sh	s0,1956(a5) # 20001ce0 <eventsClear>
    2544:	4501                	li	a0,0
    2546:	e091                	bnez	s1,254a <tmos_stop_task+0x44>
    2548:	4519                	li	a0,6
    254a:	40b2                	lw	ra,12(sp)
    254c:	4422                	lw	s0,8(sp)
    254e:	4492                	lw	s1,4(sp)
    2550:	4902                	lw	s2,0(sp)
    2552:	0141                	addi	sp,sp,16
    2554:	8082                	ret

00002556 <TMOS_TimerRegister>:
    2556:	1141                	addi	sp,sp,-16
    2558:	c606                	sw	ra,12(sp)
    255a:	1ffff797          	auipc	a5,0x1ffff
    255e:	7ca7ab23          	sw	a0,2006(a5) # 20001d30 <pfnTimerCBs>
    2562:	9502                	jalr	a0
    2564:	40b2                	lw	ra,12(sp)
    2566:	1ffff797          	auipc	a5,0x1ffff
    256a:	74a7a523          	sw	a0,1866(a5) # 20001cb0 <gTmosPara+0x18>
    256e:	4501                	li	a0,0
    2570:	0141                	addi	sp,sp,16
    2572:	8082                	ret

00002574 <TMOS_Init>:
    2574:	1141                	addi	sp,sp,-16
    2576:	4671                	li	a2,28
    2578:	4581                	li	a1,0
    257a:	1ffff517          	auipc	a0,0x1ffff
    257e:	74a50513          	addi	a0,a0,1866 # 20001cc4 <pfnProcessCBs>
    2582:	c606                	sw	ra,12(sp)
    2584:	1ffff797          	auipc	a5,0x1ffff
    2588:	7607a223          	sw	zero,1892(a5) # 20001ce8 <taskHead>
    258c:	1ffff797          	auipc	a5,0x1ffff
    2590:	7a07a223          	sw	zero,1956(a5) # 20001d30 <pfnTimerCBs>
    2594:	1ffff797          	auipc	a5,0x1ffff
    2598:	7a07a023          	sw	zero,1952(a5) # 20001d34 <fnGetClockCBs>
    259c:	d85fd0ef          	jal	ra,320 <tmos_memset>
    25a0:	02800613          	li	a2,40
    25a4:	4581                	li	a1,0
    25a6:	1ffff517          	auipc	a0,0x1ffff
    25aa:	6f250513          	addi	a0,a0,1778 # 20001c98 <gTmosPara>
    25ae:	d73fd0ef          	jal	ra,320 <tmos_memset>
    25b2:	6cf010ef          	jal	ra,4480 <tmos_memory_init>
    25b6:	1ffff797          	auipc	a5,0x1ffff
    25ba:	74b7c783          	lbu	a5,1867(a5) # 20001d01 <ble+0x15>
    25be:	0027d513          	srli	a0,a5,0x2
    25c2:	8b8d                	andi	a5,a5,3
    25c4:	953e                	add	a0,a0,a5
    25c6:	478d                	li	a5,3
    25c8:	02f50533          	mul	a0,a0,a5
    25cc:	4585                	li	a1,1
    25ce:	0539                	addi	a0,a0,14
    25d0:	0ff57513          	andi	a0,a0,255
    25d4:	1ffff797          	auipc	a5,0x1ffff
    25d8:	6ca78323          	sb	a0,1734(a5) # 20001c9a <gTmosPara+0x2>
    25dc:	4799                	li	a5,6
    25de:	02f50533          	mul	a0,a0,a5
    25e2:	24050513          	addi	a0,a0,576
    25e6:	8effe0ef          	jal	ra,ed4 <tmos_memory_allocate>
    25ea:	1ffff717          	auipc	a4,0x1ffff
    25ee:	74a72123          	sw	a0,1858(a4) # 20001d2c <cbTimersHead>
    25f2:	cd41                	beqz	a0,268a <TMOS_Init+0x116>
    25f4:	4799                	li	a5,6
    25f6:	1ffff617          	auipc	a2,0x1ffff
    25fa:	6a464603          	lbu	a2,1700(a2) # 20001c9a <gTmosPara+0x2>
    25fe:	02f60633          	mul	a2,a2,a5
    2602:	4581                	li	a1,0
    2604:	24060613          	addi	a2,a2,576
    2608:	d19fd0ef          	jal	ra,320 <tmos_memset>
    260c:	1ffff797          	auipc	a5,0x1ffff
    2610:	72078793          	addi	a5,a5,1824 # 20001d2c <cbTimersHead>
    2614:	439c                	lw	a5,0(a5)
    2616:	24078793          	addi	a5,a5,576
    261a:	1ffff717          	auipc	a4,0x1ffff
    261e:	6af72323          	sw	a5,1702(a4) # 20001cc0 <tasksArr>
    2622:	1ffff717          	auipc	a4,0x1ffff
    2626:	67874703          	lbu	a4,1656(a4) # 20001c9a <gTmosPara+0x2>
    262a:	070a                	slli	a4,a4,0x2
    262c:	97ba                	add	a5,a5,a4
    262e:	1ffff717          	auipc	a4,0x1ffff
    2632:	6af72b23          	sw	a5,1718(a4) # 20001ce4 <EventsArr>
    2636:	3185                	jal	2296 <tmos_msg_init>
    2638:	2ce1                	jal	2910 <tmos_snv_init>
    263a:	1ffff797          	auipc	a5,0x1ffff
    263e:	68678793          	addi	a5,a5,1670 # 20001cc0 <tasksArr>
    2642:	4394                	lw	a3,0(a5)
    2644:	1ffff797          	auipc	a5,0x1ffff
    2648:	6557c783          	lbu	a5,1621(a5) # 20001c99 <gTmosPara+0x1>
    264c:	00279713          	slli	a4,a5,0x2
    2650:	9736                	add	a4,a4,a3
    2652:	00000617          	auipc	a2,0x0
    2656:	c4e60613          	addi	a2,a2,-946 # 22a0 <TMOS_CB_PeriodicProcessEvent>
    265a:	c310                	sw	a2,0(a4)
    265c:	00178713          	addi	a4,a5,1
    2660:	0ff77713          	andi	a4,a4,255
    2664:	070a                	slli	a4,a4,0x2
    2666:	9736                	add	a4,a4,a3
    2668:	00000617          	auipc	a2,0x0
    266c:	cbe60613          	addi	a2,a2,-834 # 2326 <TMOS_CB_ProcessEvent>
    2670:	c310                	sw	a2,0(a4)
    2672:	00378713          	addi	a4,a5,3
    2676:	0789                	addi	a5,a5,2
    2678:	0ff7f793          	andi	a5,a5,255
    267c:	078a                	slli	a5,a5,0x2
    267e:	1ffff597          	auipc	a1,0x1ffff
    2682:	60e58da3          	sb	a4,1563(a1) # 20001c99 <gTmosPara+0x1>
    2686:	97b6                	add	a5,a5,a3
    2688:	c390                	sw	a2,0(a5)
    268a:	40b2                	lw	ra,12(sp)
    268c:	0141                	addi	sp,sp,16
    268e:	8082                	ret

00002690 <TMOS_ProcessEventRegister>:
    2690:	1ffff797          	auipc	a5,0x1ffff
    2694:	6097c783          	lbu	a5,1545(a5) # 20001c99 <gTmosPara+0x1>
    2698:	1ffff717          	auipc	a4,0x1ffff
    269c:	60274703          	lbu	a4,1538(a4) # 20001c9a <gTmosPara+0x2>
    26a0:	02e7f363          	bgeu	a5,a4,26c6 <TMOS_ProcessEventRegister+0x36>
    26a4:	1ffff717          	auipc	a4,0x1ffff
    26a8:	61c70713          	addi	a4,a4,1564 # 20001cc0 <tasksArr>
    26ac:	4318                	lw	a4,0(a4)
    26ae:	00178693          	addi	a3,a5,1
    26b2:	1ffff617          	auipc	a2,0x1ffff
    26b6:	5ed603a3          	sb	a3,1511(a2) # 20001c99 <gTmosPara+0x1>
    26ba:	00279693          	slli	a3,a5,0x2
    26be:	9736                	add	a4,a4,a3
    26c0:	c308                	sw	a0,0(a4)
    26c2:	853e                	mv	a0,a5
    26c4:	8082                	ret
    26c6:	0ff00793          	li	a5,255
    26ca:	bfe5                	j	26c2 <TMOS_ProcessEventRegister+0x32>

000026cc <BLE_LibInit>:
    26cc:	411c                	lw	a5,0(a0)
    26ce:	14078063          	beqz	a5,280e <BLE_LibInit+0x142>
    26d2:	7741                	lui	a4,0xffff0
    26d4:	8f7d                	and	a4,a4,a5
    26d6:	200006b7          	lui	a3,0x20000
    26da:	4789                	li	a5,2
    26dc:	12d71a63          	bne	a4,a3,2810 <BLE_LibInit+0x144>
    26e0:	215a                	lhu	a4,4(a0)
    26e2:	12070763          	beqz	a4,2810 <BLE_LibInit+0x144>
    26e6:	1141                	addi	sp,sp,-16
    26e8:	c422                	sw	s0,8(sp)
    26ea:	4619                	li	a2,6
    26ec:	842a                	mv	s0,a0
    26ee:	0ff00593          	li	a1,255
    26f2:	0561                	addi	a0,a0,24
    26f4:	c606                	sw	ra,12(sp)
    26f6:	cc7fd0ef          	jal	ra,3bc <tmos_isbufset>
    26fa:	4705                	li	a4,1
    26fc:	478d                	li	a5,3
    26fe:	10e50363          	beq	a0,a4,2804 <BLE_LibInit+0x138>
    2702:	441c                	lw	a5,8(s0)
    2704:	cb81                	beqz	a5,2714 <BLE_LibInit+0x48>
    2706:	5c18                	lw	a4,56(s0)
    2708:	4799                	li	a5,6
    270a:	0e070d63          	beqz	a4,2804 <BLE_LibInit+0x138>
    270e:	5c58                	lw	a4,60(s0)
    2710:	0e070a63          	beqz	a4,2804 <BLE_LibInit+0x138>
    2714:	04000613          	li	a2,64
    2718:	4581                	li	a1,0
    271a:	1ffff517          	auipc	a0,0x1ffff
    271e:	5d250513          	addi	a0,a0,1490 # 20001cec <ble>
    2722:	bfffd0ef          	jal	ra,320 <tmos_memset>
    2726:	04000613          	li	a2,64
    272a:	85a2                	mv	a1,s0
    272c:	1ffff517          	auipc	a0,0x1ffff
    2730:	5c050513          	addi	a0,a0,1472 # 20001cec <ble>
    2734:	bb9fd0ef          	jal	ra,2ec <tmos_memcpy>
    2738:	1ffff717          	auipc	a4,0x1ffff
    273c:	5c075703          	lhu	a4,1472(a4) # 20001cf8 <ble+0xc>
    2740:	1ffff797          	auipc	a5,0x1ffff
    2744:	5ac78793          	addi	a5,a5,1452 # 20001cec <ble>
    2748:	e719                	bnez	a4,2756 <BLE_LibInit+0x8a>
    274a:	10000713          	li	a4,256
    274e:	1ffff697          	auipc	a3,0x1ffff
    2752:	5ae69523          	sh	a4,1450(a3) # 20001cf8 <ble+0xc>
    2756:	1ffff717          	auipc	a4,0x1ffff
    275a:	5a474703          	lbu	a4,1444(a4) # 20001cfa <ble+0xe>
    275e:	e711                	bnez	a4,276a <BLE_LibInit+0x9e>
    2760:	4705                	li	a4,1
    2762:	1ffff697          	auipc	a3,0x1ffff
    2766:	58e68c23          	sb	a4,1432(a3) # 20001cfa <ble+0xe>
    276a:	1ffff717          	auipc	a4,0x1ffff
    276e:	59275703          	lhu	a4,1426(a4) # 20001cfc <ble+0x10>
    2772:	e711                	bnez	a4,277e <BLE_LibInit+0xb2>
    2774:	476d                	li	a4,27
    2776:	1ffff697          	auipc	a3,0x1ffff
    277a:	58e69323          	sh	a4,1414(a3) # 20001cfc <ble+0x10>
    277e:	1ffff717          	auipc	a4,0x1ffff
    2782:	57d74703          	lbu	a4,1405(a4) # 20001cfb <ble+0xf>
    2786:	e711                	bnez	a4,2792 <BLE_LibInit+0xc6>
    2788:	4715                	li	a4,5
    278a:	1ffff697          	auipc	a3,0x1ffff
    278e:	56e688a3          	sb	a4,1393(a3) # 20001cfb <ble+0xf>
    2792:	1ffff717          	auipc	a4,0x1ffff
    2796:	56c74703          	lbu	a4,1388(a4) # 20001cfe <ble+0x12>
    279a:	e711                	bnez	a4,27a6 <BLE_LibInit+0xda>
    279c:	4705                	li	a4,1
    279e:	1ffff697          	auipc	a3,0x1ffff
    27a2:	56e68023          	sb	a4,1376(a3) # 20001cfe <ble+0x12>
    27a6:	1ffff717          	auipc	a4,0x1ffff
    27aa:	55974703          	lbu	a4,1369(a4) # 20001cff <ble+0x13>
    27ae:	e711                	bnez	a4,27ba <BLE_LibInit+0xee>
    27b0:	37f8                	lbu	a4,15(a5)
    27b2:	1ffff697          	auipc	a3,0x1ffff
    27b6:	54e686a3          	sb	a4,1357(a3) # 20001cff <ble+0x13>
    27ba:	1ffff717          	auipc	a4,0x1ffff
    27be:	54674703          	lbu	a4,1350(a4) # 20001d00 <ble+0x14>
    27c2:	e711                	bnez	a4,27ce <BLE_LibInit+0x102>
    27c4:	4725                	li	a4,9
    27c6:	1ffff697          	auipc	a3,0x1ffff
    27ca:	52e68d23          	sb	a4,1338(a3) # 20001d00 <ble+0x14>
    27ce:	1ffff717          	auipc	a4,0x1ffff
    27d2:	53574703          	lbu	a4,1333(a4) # 20001d03 <ble+0x17>
    27d6:	e711                	bnez	a4,27e2 <BLE_LibInit+0x116>
    27d8:	4751                	li	a4,20
    27da:	1ffff697          	auipc	a3,0x1ffff
    27de:	52e684a3          	sb	a4,1321(a3) # 20001d03 <ble+0x17>
    27e2:	2878                	lbu	a4,22(s0)
    27e4:	e719                	bnez	a4,27f2 <BLE_LibInit+0x126>
    27e6:	03c00713          	li	a4,60
    27ea:	1ffff697          	auipc	a3,0x1ffff
    27ee:	50e68c23          	sb	a4,1304(a3) # 20001d02 <ble+0x16>
    27f2:	57dc                	lw	a5,44(a5)
    27f4:	c791                	beqz	a5,2800 <BLE_LibInit+0x134>
    27f6:	9782                	jalr	a5
    27f8:	1ffff797          	auipc	a5,0x1ffff
    27fc:	4aa79423          	sh	a0,1192(a5) # 20001ca0 <gTmosPara+0x8>
    2800:	3b95                	jal	2574 <TMOS_Init>
    2802:	4781                	li	a5,0
    2804:	40b2                	lw	ra,12(sp)
    2806:	4422                	lw	s0,8(sp)
    2808:	853e                	mv	a0,a5
    280a:	0141                	addi	sp,sp,16
    280c:	8082                	ret
    280e:	4789                	li	a5,2
    2810:	853e                	mv	a0,a5
    2812:	8082                	ret

00002814 <clockGetTickValve>:
    2814:	1ffff797          	auipc	a5,0x1ffff
    2818:	52078793          	addi	a5,a5,1312 # 20001d34 <fnGetClockCBs>
    281c:	439c                	lw	a5,0(a5)
    281e:	1141                	addi	sp,sp,-16
    2820:	c606                	sw	ra,12(sp)
    2822:	c422                	sw	s0,8(sp)
    2824:	c226                	sw	s1,4(sp)
    2826:	c04a                	sw	s2,0(sp)
    2828:	9782                	jalr	a5
    282a:	64000793          	li	a5,1600
    282e:	02f535b3          	mulhu	a1,a0,a5
    2832:	1ffff917          	auipc	s2,0x1ffff
    2836:	4d895903          	lhu	s2,1240(s2) # 20001d0a <ble+0x1e>
    283a:	864a                	mv	a2,s2
    283c:	4681                	li	a3,0
    283e:	02f50533          	mul	a0,a0,a5
    2842:	617010ef          	jal	ra,4658 <__udivdi3>
    2846:	1ffff797          	auipc	a5,0x1ffff
    284a:	45278793          	addi	a5,a5,1106 # 20001c98 <gTmosPara>
    284e:	4f80                	lw	s0,24(a5)
    2850:	84aa                	mv	s1,a0
    2852:	4501                	li	a0,0
    2854:	02940463          	beq	s0,s1,287c <clockGetTickValve+0x68>
    2858:	40848533          	sub	a0,s1,s0
    285c:	00946c63          	bltu	s0,s1,2874 <clockGetTickValve+0x60>
    2860:	864a                	mv	a2,s2
    2862:	4681                	li	a3,0
    2864:	9c000513          	li	a0,-1600
    2868:	63f00593          	li	a1,1599
    286c:	5ed010ef          	jal	ra,4658 <__udivdi3>
    2870:	8d01                	sub	a0,a0,s0
    2872:	9526                	add	a0,a0,s1
    2874:	1ffff797          	auipc	a5,0x1ffff
    2878:	4297ae23          	sw	s1,1084(a5) # 20001cb0 <gTmosPara+0x18>
    287c:	40b2                	lw	ra,12(sp)
    287e:	4422                	lw	s0,8(sp)
    2880:	4492                	lw	s1,4(sp)
    2882:	4902                	lw	s2,0(sp)
    2884:	0141                	addi	sp,sp,16
    2886:	8082                	ret

00002888 <TMOS_TimerInit>:
    2888:	1ffff797          	auipc	a5,0x1ffff
    288c:	46478793          	addi	a5,a5,1124 # 20001cec <ble>
    2890:	5b9c                	lw	a5,48(a5)
    2892:	1101                	addi	sp,sp,-32
    2894:	ce06                	sw	ra,28(sp)
    2896:	c781                	beqz	a5,289e <TMOS_TimerInit+0x16>
    2898:	c62a                	sw	a0,12(sp)
    289a:	9782                	jalr	a5
    289c:	4532                	lw	a0,12(sp)
    289e:	c915                	beqz	a0,28d2 <TMOS_TimerInit+0x4a>
    28a0:	1ffff717          	auipc	a4,0x1ffff
    28a4:	46a75703          	lhu	a4,1130(a4) # 20001d0a <ble+0x1e>
    28a8:	4785                	li	a5,1
    28aa:	c305                	beqz	a4,28ca <TMOS_TimerInit+0x42>
    28ac:	1ffff717          	auipc	a4,0x1ffff
    28b0:	46075703          	lhu	a4,1120(a4) # 20001d0c <ble+0x20>
    28b4:	cb19                	beqz	a4,28ca <TMOS_TimerInit+0x42>
    28b6:	1ffff797          	auipc	a5,0x1ffff
    28ba:	46a7af23          	sw	a0,1150(a5) # 20001d34 <fnGetClockCBs>
    28be:	00000517          	auipc	a0,0x0
    28c2:	f5650513          	addi	a0,a0,-170 # 2814 <clockGetTickValve>
    28c6:	3941                	jal	2556 <TMOS_TimerRegister>
    28c8:	4781                	li	a5,0
    28ca:	40f2                	lw	ra,28(sp)
    28cc:	853e                	mv	a0,a5
    28ce:	6105                	addi	sp,sp,32
    28d0:	8082                	ret
    28d2:	1ffff797          	auipc	a5,0x1ffff
    28d6:	3e07a123          	sw	zero,994(a5) # 20001cb4 <gTmosPara+0x1c>
    28da:	77e1                	lui	a5,0xffff8
    28dc:	a127c793          	xori	a5,a5,-1518
    28e0:	1ffff717          	auipc	a4,0x1ffff
    28e4:	42f71523          	sh	a5,1066(a4) # 20001d0a <ble+0x1e>
    28e8:	03200793          	li	a5,50
    28ec:	1ffff717          	auipc	a4,0x1ffff
    28f0:	42f71023          	sh	a5,1056(a4) # 20001d0c <ble+0x20>
    28f4:	577d                	li	a4,-1
    28f6:	400247b7          	lui	a5,0x40024
    28fa:	26e7a423          	sw	a4,616(a5) # 40024268 <_eusrstack+0x20014268>
    28fe:	ffffe797          	auipc	a5,0xffffe
    2902:	da078793          	addi	a5,a5,-608 # 69e <clockGetHSEValue>
    2906:	1ffff717          	auipc	a4,0x1ffff
    290a:	42f72723          	sw	a5,1070(a4) # 20001d34 <fnGetClockCBs>
    290e:	bf45                	j	28be <TMOS_TimerInit+0x36>

00002910 <tmos_snv_init>:
    2910:	1101                	addi	sp,sp,-32
    2912:	cc22                	sw	s0,24(sp)
    2914:	1ffff417          	auipc	s0,0x1ffff
    2918:	3d840413          	addi	s0,s0,984 # 20001cec <ble>
    291c:	4408                	lw	a0,8(s0)
    291e:	ce06                	sw	ra,28(sp)
    2920:	ca26                	sw	s1,20(sp)
    2922:	c84a                	sw	s2,16(sp)
    2924:	e901                	bnez	a0,2934 <tmos_snv_init+0x24>
    2926:	4505                	li	a0,1
    2928:	40f2                	lw	ra,28(sp)
    292a:	4462                	lw	s0,24(sp)
    292c:	44d2                	lw	s1,20(sp)
    292e:	4942                	lw	s2,16(sp)
    2930:	6105                	addi	sp,sp,32
    2932:	8082                	ret
    2934:	5c1c                	lw	a5,56(s0)
    2936:	dbe5                	beqz	a5,2926 <tmos_snv_init+0x16>
    2938:	5c58                	lw	a4,60(s0)
    293a:	d775                	beqz	a4,2926 <tmos_snv_init+0x16>
    293c:	0070                	addi	a2,sp,12
    293e:	4585                	li	a1,1
    2940:	9782                	jalr	a5
    2942:	4418                	lw	a4,8(s0)
    2944:	47b2                	lw	a5,12(sp)
    2946:	fef700e3          	beq	a4,a5,2926 <tmos_snv_init+0x16>
    294a:	04e00593          	li	a1,78
    294e:	1ffff517          	auipc	a0,0x1ffff
    2952:	3aa55503          	lhu	a0,938(a0) # 20001cf8 <ble+0xc>
    2956:	d7efe0ef          	jal	ra,ed4 <tmos_memory_allocate>
    295a:	1ffff717          	auipc	a4,0x1ffff
    295e:	34a72f23          	sw	a0,862(a4) # 20001cb8 <gTmosPara+0x20>
    2962:	d171                	beqz	a0,2926 <tmos_snv_init+0x16>
    2964:	1ffff617          	auipc	a2,0x1ffff
    2968:	39465603          	lhu	a2,916(a2) # 20001cf8 <ble+0xc>
    296c:	0ff00593          	li	a1,255
    2970:	9b1fd0ef          	jal	ra,320 <tmos_memset>
    2974:	4481                	li	s1,0
    2976:	1ffff917          	auipc	s2,0x1ffff
    297a:	32290913          	addi	s2,s2,802 # 20001c98 <gTmosPara>
    297e:	1ffff797          	auipc	a5,0x1ffff
    2982:	37c7c783          	lbu	a5,892(a5) # 20001cfa <ble+0xe>
    2986:	02092603          	lw	a2,32(s2)
    298a:	00f4cf63          	blt	s1,a5,29a8 <tmos_snv_init+0x98>
    298e:	8532                	mv	a0,a2
    2990:	e0cfe0ef          	jal	ra,f9c <tmos_memory_free>
    2994:	4501                	li	a0,0
    2996:	1ffff797          	auipc	a5,0x1ffff
    299a:	3207a123          	sw	zero,802(a5) # 20001cb8 <gTmosPara+0x20>
    299e:	1ffff797          	auipc	a5,0x1ffff
    29a2:	3007af23          	sw	zero,798(a5) # 20001cbc <gTmosPara+0x24>
    29a6:	b749                	j	2928 <tmos_snv_init+0x18>
    29a8:	1ffff597          	auipc	a1,0x1ffff
    29ac:	3505d583          	lhu	a1,848(a1) # 20001cf8 <ble+0xc>
    29b0:	029587b3          	mul	a5,a1,s1
    29b4:	4408                	lw	a0,8(s0)
    29b6:	5c58                	lw	a4,60(s0)
    29b8:	8189                	srli	a1,a1,0x2
    29ba:	0485                	addi	s1,s1,1
    29bc:	953e                	add	a0,a0,a5
    29be:	c208                	sw	a0,0(a2)
    29c0:	9702                	jalr	a4
    29c2:	bf75                	j	297e <tmos_snv_init+0x6e>

000029c4 <LL_GetNextConnectEventTime>:
    29c4:	1ffff797          	auipc	a5,0x1ffff
    29c8:	2d77c783          	lbu	a5,727(a5) # 20001c9b <gTmosPara+0x3>
    29cc:	14078f63          	beqz	a5,2b2a <LL_GetNextConnectEventTime+0x166>
    29d0:	715d                	addi	sp,sp,-80
    29d2:	dc52                	sw	s4,56(sp)
    29d4:	c686                	sw	ra,76(sp)
    29d6:	8a2a                	mv	s4,a0
    29d8:	c4a2                	sw	s0,72(sp)
    29da:	c2a6                	sw	s1,68(sp)
    29dc:	c0ca                	sw	s2,64(sp)
    29de:	de4e                	sw	s3,60(sp)
    29e0:	da56                	sw	s5,52(sp)
    29e2:	d85a                	sw	s6,48(sp)
    29e4:	d65e                	sw	s7,44(sp)
    29e6:	d462                	sw	s8,40(sp)
    29e8:	d266                	sw	s9,36(sp)
    29ea:	d06a                	sw	s10,32(sp)
    29ec:	ce6e                	sw	s11,28(sp)
    29ee:	557d                	li	a0,-1
    29f0:	0e0a0763          	beqz	s4,2ade <LL_GetNextConnectEventTime+0x11a>
    29f4:	1ffff797          	auipc	a5,0x1ffff
    29f8:	3cc78793          	addi	a5,a5,972 # 20001dc0 <gBleLlPara>
    29fc:	08c7a403          	lw	s0,140(a5)
    2a00:	cc79                	beqz	s0,2ade <LL_GetNextConnectEventTime+0x11a>
    2a02:	000f4bb7          	lui	s7,0xf4
    2a06:	000f4937          	lui	s2,0xf4
    2a0a:	23fb8d13          	addi	s10,s7,575 # f423f <_data_lma+0xee33b>
    2a0e:	1ffffc17          	auipc	s8,0x1ffff
    2a12:	2fcc5c03          	lhu	s8,764(s8) # 20001d0a <ble+0x1e>
    2a16:	1ffffd97          	auipc	s11,0x1ffff
    2a1a:	2ecdcd83          	lbu	s11,748(s11) # 20001d02 <ble+0x16>
    2a1e:	5b7d                	li	s6,-1
    2a20:	4c85                	li	s9,1
    2a22:	240b8b93          	addi	s7,s7,576
    2a26:	479d                	li	a5,7
    2a28:	4e200713          	li	a4,1250
    2a2c:	24090913          	addi	s2,s2,576 # f4240 <_data_lma+0xee33c>
    2a30:	4981                	li	s3,0
    2a32:	3434                	lbu	a3,11(s0)
    2a34:	09042803          	lw	a6,144(s0)
    2a38:	07969b63          	bne	a3,s9,2aae <LL_GetNextConnectEventTime+0xea>
    2a3c:	07e45503          	lhu	a0,126(s0)
    2a40:	03a45a83          	lhu	s5,58(s0)
    2a44:	0b557c63          	bgeu	a0,s5,2afc <LL_GetNextConnectEventTime+0x138>
    2a48:	2814                	lbu	a3,16(s0)
    2a4a:	0b969963          	bne	a3,s9,2afc <LL_GetNextConnectEventTime+0x138>
    2a4e:	11842683          	lw	a3,280(s0)
    2a52:	e6cd                	bnez	a3,2afc <LL_GetNextConnectEventTime+0x138>
    2a54:	0a442683          	lw	a3,164(s0)
    2a58:	e2d5                	bnez	a3,2afc <LL_GetNextConnectEventTime+0x138>
    2a5a:	3474                	lbu	a3,15(s0)
    2a5c:	0af69063          	bne	a3,a5,2afc <LL_GetNextConnectEventTime+0x138>
    2a60:	40aa8ab3          	sub	s5,s5,a0
    2a64:	3c0a                	lhu	a0,56(s0)
    2a66:	09442483          	lw	s1,148(s0)
    2a6a:	864a                	mv	a2,s2
    2a6c:	03550533          	mul	a0,a0,s5
    2a70:	86ce                	mv	a3,s3
    2a72:	c642                	sw	a6,12(sp)
    2a74:	02e50533          	mul	a0,a0,a4
    2a78:	029554b3          	divu	s1,a0,s1
    2a7c:	94ee                	add	s1,s1,s11
    2a7e:	04c2                	slli	s1,s1,0x10
    2a80:	80c1                	srli	s1,s1,0x10
    2a82:	08941223          	sh	s1,132(s0)
    2a86:	038484b3          	mul	s1,s1,s8
    2a8a:	94ea                	add	s1,s1,s10
    2a8c:	0374d4b3          	divu	s1,s1,s7
    2a90:	02ac35b3          	mulhu	a1,s8,a0
    2a94:	02ac0533          	mul	a0,s8,a0
    2a98:	3c1010ef          	jal	ra,4658 <__udivdi3>
    2a9c:	4832                	lw	a6,12(sp)
    2a9e:	4e200713          	li	a4,1250
    2aa2:	479d                	li	a5,7
    2aa4:	41580ab3          	sub	s5,a6,s5
    2aa8:	9aaa                	add	s5,s5,a0
    2aaa:	409a8833          	sub	a6,s5,s1
    2aae:	01687363          	bgeu	a6,s6,2ab4 <LL_GetNextConnectEventTime+0xf0>
    2ab2:	8b42                	mv	s6,a6
    2ab4:	4000                	lw	s0,0(s0)
    2ab6:	fc35                	bnez	s0,2a32 <LL_GetNextConnectEventTime+0x6e>
    2ab8:	1ffff797          	auipc	a5,0x1ffff
    2abc:	27c78793          	addi	a5,a5,636 # 20001d34 <fnGetClockCBs>
    2ac0:	439c                	lw	a5,0(a5)
    2ac2:	9782                	jalr	a5
    2ac4:	04ab6663          	bltu	s6,a0,2b10 <LL_GetNextConnectEventTime+0x14c>
    2ac8:	40ab07b3          	sub	a5,s6,a0
    2acc:	00fa2023          	sw	a5,0(s4)
    2ad0:	000a2783          	lw	a5,0(s4)
    2ad4:	4729                	li	a4,10
    2ad6:	04f76463          	bltu	a4,a5,2b1e <LL_GetNextConnectEventTime+0x15a>
    2ada:	000a2023          	sw	zero,0(s4)
    2ade:	40b6                	lw	ra,76(sp)
    2ae0:	4426                	lw	s0,72(sp)
    2ae2:	4496                	lw	s1,68(sp)
    2ae4:	4906                	lw	s2,64(sp)
    2ae6:	59f2                	lw	s3,60(sp)
    2ae8:	5a62                	lw	s4,56(sp)
    2aea:	5ad2                	lw	s5,52(sp)
    2aec:	5b42                	lw	s6,48(sp)
    2aee:	5bb2                	lw	s7,44(sp)
    2af0:	5c22                	lw	s8,40(sp)
    2af2:	5c92                	lw	s9,36(sp)
    2af4:	5d02                	lw	s10,32(sp)
    2af6:	4df2                	lw	s11,28(sp)
    2af8:	6161                	addi	sp,sp,80
    2afa:	8082                	ret
    2afc:	08445683          	lhu	a3,132(s0)
    2b00:	038686b3          	mul	a3,a3,s8
    2b04:	96ea                	add	a3,a3,s10
    2b06:	0376d6b3          	divu	a3,a3,s7
    2b0a:	40d80833          	sub	a6,a6,a3
    2b0e:	b745                	j	2aae <LL_GetNextConnectEventTime+0xea>
    2b10:	416507b3          	sub	a5,a0,s6
    2b14:	fa07cae3          	bltz	a5,2ac8 <LL_GetNextConnectEventTime+0x104>
    2b18:	000a2023          	sw	zero,0(s4)
    2b1c:	bf55                	j	2ad0 <LL_GetNextConnectEventTime+0x10c>
    2b1e:	17d9                	addi	a5,a5,-10
    2b20:	00fa2023          	sw	a5,0(s4)
    2b24:	ff6b0513          	addi	a0,s6,-10
    2b28:	bf5d                	j	2ade <LL_GetNextConnectEventTime+0x11a>
    2b2a:	557d                	li	a0,-1
    2b2c:	8082                	ret

00002b2e <LL_ScanSetRF>:
    2b2e:	1141                	addi	sp,sp,-16
    2b30:	1ffff797          	auipc	a5,0x1ffff
    2b34:	29078793          	addi	a5,a5,656 # 20001dc0 <gBleLlPara>
    2b38:	c226                	sw	s1,4(sp)
    2b3a:	1ffff497          	auipc	s1,0x1ffff
    2b3e:	22648493          	addi	s1,s1,550 # 20001d60 <gptrLLEReg>
    2b42:	c422                	sw	s0,8(sp)
    2b44:	5be0                	lw	s0,116(a5)
    2b46:	409c                	lw	a5,0(s1)
    2b48:	c606                	sw	ra,12(sp)
    2b4a:	c04a                	sw	s2,0(sp)
    2b4c:	4398                	lw	a4,0(a5)
    2b4e:	8b0d                	andi	a4,a4,3
    2b50:	c305                	beqz	a4,2b70 <LL_ScanSetRF+0x42>
    2b52:	4bb8                	lw	a4,80(a5)
    2b54:	9b61                	andi	a4,a4,-8
    2b56:	cbb8                	sw	a4,80(a5)
    2b58:	4398                	lw	a4,0(a5)
    2b5a:	00876713          	ori	a4,a4,8
    2b5e:	c398                	sw	a4,0(a5)
    2b60:	439c                	lw	a5,0(a5)
    2b62:	838d                	srli	a5,a5,0x3
    2b64:	8b85                	andi	a5,a5,1
    2b66:	c789                	beqz	a5,2b70 <LL_ScanSetRF+0x42>
    2b68:	0001                	nop
    2b6a:	0001                	nop
    2b6c:	0001                	nop
    2b6e:	0001                	nop
    2b70:	1ffff797          	auipc	a5,0x1ffff
    2b74:	1cc78793          	addi	a5,a5,460 # 20001d3c <gptrBBReg>
    2b78:	4394                	lw	a3,0(a5)
    2b7a:	8e89c737          	lui	a4,0x8e89c
    2b7e:	ed670713          	addi	a4,a4,-298 # 8e89bed6 <_eusrstack+0x6e88bed6>
    2b82:	c698                	sw	a4,8(a3)
    2b84:	00555737          	lui	a4,0x555
    2b88:	55570713          	addi	a4,a4,1365 # 555555 <_data_lma+0x54f651>
    2b8c:	c2d8                	sw	a4,4(a3)
    2b8e:	02244703          	lbu	a4,34(s0)
    2b92:	0ff00693          	li	a3,255
    2b96:	893e                	mv	s2,a5
    2b98:	00d70763          	beq	a4,a3,2ba6 <LL_ScanSetRF+0x78>
    2b9c:	57fd                	li	a5,-1
    2b9e:	02e400a3          	sb	a4,33(s0)
    2ba2:	02f40123          	sb	a5,34(s0)
    2ba6:	02144503          	lbu	a0,33(s0)
    2baa:	4789                	li	a5,2
    2bac:	00f50363          	beq	a0,a5,2bb2 <LL_ScanSetRF+0x84>
    2bb0:	4501                	li	a0,0
    2bb2:	4098                	lw	a4,0(s1)
    2bb4:	435c                	lw	a5,4(a4)
    2bb6:	0017e793          	ori	a5,a5,1
    2bba:	c35c                	sw	a5,4(a4)
    2bbc:	fa100793          	li	a5,-95
    2bc0:	a43c                	sb	a5,10(s0)
    2bc2:	1ffff797          	auipc	a5,0x1ffff
    2bc6:	18b7c783          	lbu	a5,395(a5) # 20001d4d <gBleIPPara+0x9>
    2bca:	cf81                	beqz	a5,2be2 <LL_ScanSetRF+0xb4>
    2bcc:	1ffff717          	auipc	a4,0x1ffff
    2bd0:	18074703          	lbu	a4,384(a4) # 20001d4c <gBleIPPara+0x8>
    2bd4:	4795                	li	a5,5
    2bd6:	00f71663          	bne	a4,a5,2be2 <LL_ScanSetRF+0xb4>
    2bda:	1ffff797          	auipc	a5,0x1ffff
    2bde:	160789a3          	sb	zero,371(a5) # 20001d4d <gBleIPPara+0x9>
    2be2:	1ffff717          	auipc	a4,0x1ffff
    2be6:	16974703          	lbu	a4,361(a4) # 20001d4b <gBleIPPara+0x7>
    2bea:	479d                	li	a5,7
    2bec:	00f71863          	bne	a4,a5,2bfc <LL_ScanSetRF+0xce>
    2bf0:	10700793          	li	a5,263
    2bf4:	1ffff717          	auipc	a4,0x1ffff
    2bf8:	14f71c23          	sh	a5,344(a4) # 20001d4c <gBleIPPara+0x8>
    2bfc:	4795                	li	a5,5
    2bfe:	1ffff717          	auipc	a4,0x1ffff
    2c02:	14f706a3          	sb	a5,333(a4) # 20001d4b <gBleIPPara+0x7>
    2c06:	4601                	li	a2,0
    2c08:	1ffff797          	auipc	a5,0x1ffff
    2c0c:	12078e23          	sb	zero,316(a5) # 20001d44 <gBleIPPara>
    2c10:	0ff00593          	li	a1,255
    2c14:	1ffff797          	auipc	a5,0x1ffff
    2c18:	12078a23          	sb	zero,308(a5) # 20001d48 <gBleIPPara+0x4>
    2c1c:	2c15                	jal	2e50 <BLE_SetPHYRxMode>
    2c1e:	4090                	lw	a2,0(s1)
    2c20:	1ffff797          	auipc	a5,0x1ffff
    2c24:	120784a3          	sb	zero,297(a5) # 20001d49 <gBleIPPara+0x5>
    2c28:	1ffff797          	auipc	a5,0x1ffff
    2c2c:	10078ea3          	sb	zero,285(a5) # 20001d45 <gBleIPPara+0x1>
    2c30:	4785                	li	a5,1
    2c32:	c21c                	sw	a5,0(a2)
    2c34:	00092783          	lw	a5,0(s2)
    2c38:	003305b7          	lui	a1,0x330
    2c3c:	4398                	lw	a4,0(a5)
    2c3e:	e7f77713          	andi	a4,a4,-385
    2c42:	c398                	sw	a4,0(a5)
    2c44:	4398                	lw	a4,0(a5)
    2c46:	e7f77713          	andi	a4,a4,-385
    2c4a:	10076713          	ori	a4,a4,256
    2c4e:	c398                	sw	a4,0(a5)
    2c50:	1ffff717          	auipc	a4,0x1ffff
    2c54:	15c70713          	addi	a4,a4,348 # 20001dac <gptrRFENDReg>
    2c58:	4318                	lw	a4,0(a4)
    2c5a:	4714                	lw	a3,8(a4)
    2c5c:	8ecd                	or	a3,a3,a1
    2c5e:	c714                	sw	a3,8(a4)
    2c60:	05900693          	li	a3,89
    2c64:	ca34                	sw	a3,80(a2)
    2c66:	5754                	lw	a3,44(a4)
    2c68:	9af5                	andi	a3,a3,-3
    2c6a:	d754                	sw	a3,44(a4)
    2c6c:	3418                	lbu	a4,9(s0)
    2c6e:	07f77693          	andi	a3,a4,127
    2c72:	4398                	lw	a4,0(a5)
    2c74:	f8077713          	andi	a4,a4,-128
    2c78:	8f55                	or	a4,a4,a3
    2c7a:	c398                	sw	a4,0(a5)
    2c7c:	40b2                	lw	ra,12(sp)
    2c7e:	4422                	lw	s0,8(sp)
    2c80:	4492                	lw	s1,4(sp)
    2c82:	4902                	lw	s2,0(sp)
    2c84:	0141                	addi	sp,sp,16
    2c86:	8082                	ret

00002c88 <BB_DevInit>:
    2c88:	1ffff617          	auipc	a2,0x1ffff
    2c8c:	0b460613          	addi	a2,a2,180 # 20001d3c <gptrBBReg>
    2c90:	421c                	lw	a5,0(a2)
    2c92:	008006b7          	lui	a3,0x800
    2c96:	800115b7          	lui	a1,0x80011
    2c9a:	4398                	lw	a4,0(a5)
    2c9c:	ec858593          	addi	a1,a1,-312 # 80010ec8 <_eusrstack+0x60000ec8>
    2ca0:	8f55                	or	a4,a4,a3
    2ca2:	c398                	sw	a4,0(a5)
    2ca4:	4398                	lw	a4,0(a5)
    2ca6:	100006b7          	lui	a3,0x10000
    2caa:	8f55                	or	a4,a4,a3
    2cac:	c398                	sw	a4,0(a5)
    2cae:	1d000713          	li	a4,464
    2cb2:	dbd8                	sw	a4,52(a5)
    2cb4:	1ffff717          	auipc	a4,0x1ffff
    2cb8:	04c74703          	lbu	a4,76(a4) # 20001d00 <ble+0x14>
    2cbc:	01971693          	slli	a3,a4,0x19
    2cc0:	8ecd                	or	a3,a3,a1
    2cc2:	d7d4                	sw	a3,44(a5)
    2cc4:	57d4                	lw	a3,44(a5)
    2cc6:	820005b7          	lui	a1,0x82000
    2cca:	03f77713          	andi	a4,a4,63
    2cce:	15fd                	addi	a1,a1,-1
    2cd0:	8eed                	and	a3,a3,a1
    2cd2:	0766                	slli	a4,a4,0x19
    2cd4:	8f55                	or	a4,a4,a3
    2cd6:	d7d8                	sw	a4,44(a5)
    2cd8:	40001737          	lui	a4,0x40001
    2cdc:	05700793          	li	a5,87
    2ce0:	04f70023          	sb	a5,64(a4) # 40001040 <_eusrstack+0x1fff1040>
    2ce4:	fa800793          	li	a5,-88
    2ce8:	04f70023          	sb	a5,64(a4)
    2cec:	1ffff697          	auipc	a3,0x1ffff
    2cf0:	0146c683          	lbu	a3,20(a3) # 20001d00 <ble+0x14>
    2cf4:	47a5                	li	a5,9
    2cf6:	00d7fd63          	bgeu	a5,a3,2d10 <BB_DevInit+0x88>
    2cfa:	333e                	lhu	a5,34(a4)
    2cfc:	0107e793          	ori	a5,a5,16
    2d00:	b33e                	sh	a5,34(a4)
    2d02:	4218                	lw	a4,0(a2)
    2d04:	000907b7          	lui	a5,0x90
    2d08:	08378793          	addi	a5,a5,131 # 90083 <_data_lma+0x8a17f>
    2d0c:	d31c                	sw	a5,32(a4)
    2d0e:	8082                	ret
    2d10:	333e                	lhu	a5,34(a4)
    2d12:	07c2                	slli	a5,a5,0x10
    2d14:	83c1                	srli	a5,a5,0x10
    2d16:	9bbd                	andi	a5,a5,-17
    2d18:	07c2                	slli	a5,a5,0x10
    2d1a:	83c1                	srli	a5,a5,0x10
    2d1c:	b7d5                	j	2d00 <BB_DevInit+0x78>

00002d1e <BLE_SetPHYTxMode>:
    2d1e:	1ffff797          	auipc	a5,0x1ffff
    2d22:	02278793          	addi	a5,a5,34 # 20001d40 <gPaControl>
    2d26:	439c                	lw	a5,0(a5)
    2d28:	cb99                	beqz	a5,2d3e <BLE_SetPHYTxMode+0x20>
    2d2a:	4b94                	lw	a3,16(a5)
    2d2c:	4bd0                	lw	a2,20(a5)
    2d2e:	4298                	lw	a4,0(a3)
    2d30:	8f51                	or	a4,a4,a2
    2d32:	c298                	sw	a4,0(a3)
    2d34:	4394                	lw	a3,0(a5)
    2d36:	479c                	lw	a5,8(a5)
    2d38:	4298                	lw	a4,0(a3)
    2d3a:	8fd9                	or	a5,a5,a4
    2d3c:	c29c                	sw	a5,0(a3)
    2d3e:	1ffff797          	auipc	a5,0x1ffff
    2d42:	ffe78793          	addi	a5,a5,-2 # 20001d3c <gptrBBReg>
    2d46:	1ffff617          	auipc	a2,0x1ffff
    2d4a:	01a60613          	addi	a2,a2,26 # 20001d60 <gptrLLEReg>
    2d4e:	00257693          	andi	a3,a0,2
    2d52:	4398                	lw	a4,0(a5)
    2d54:	00062803          	lw	a6,0(a2)
    2d58:	1ffff797          	auipc	a5,0x1ffff
    2d5c:	ff67c783          	lbu	a5,-10(a5) # 20001d4e <gBleIPPara+0xa>
    2d60:	c6d9                	beqz	a3,2dee <BLE_SetPHYTxMode+0xd0>
    2d62:	4314                	lw	a3,0(a4)
    2d64:	78f5                	lui	a7,0xffffd
    2d66:	18fd                	addi	a7,a7,-1
    2d68:	0116f6b3          	and	a3,a3,a7
    2d6c:	6309                	lui	t1,0x2
    2d6e:	0066e6b3          	or	a3,a3,t1
    2d72:	c314                	sw	a3,0(a4)
    2d74:	76d1                	lui	a3,0xffff4
    2d76:	fff68893          	addi	a7,a3,-1 # ffff3fff <_eusrstack+0xdffe3fff>
    2d7a:	4314                	lw	a3,0(a4)
    2d7c:	0589                	addi	a1,a1,2
    2d7e:	4e0d                	li	t3,3
    2d80:	058e                	slli	a1,a1,0x3
    2d82:	0be78793          	addi	a5,a5,190
    2d86:	0116f6b3          	and	a3,a3,a7
    2d8a:	03c51e63          	bne	a0,t3,2dc6 <BLE_SetPHYTxMode+0xa8>
    2d8e:	6511                	lui	a0,0x4
    2d90:	8ec9                	or	a3,a3,a0
    2d92:	c314                	sw	a3,0(a4)
    2d94:	6735                	lui	a4,0xd
    2d96:	073d                	addi	a4,a4,15
    2d98:	00e82623          	sw	a4,12(a6)
    2d9c:	0001                	nop
    2d9e:	0001                	nop
    2da0:	4218                	lw	a4,0(a2)
    2da2:	f8000693          	li	a3,-128
    2da6:	0d758593          	addi	a1,a1,215 # 820000d7 <_eusrstack+0x61ff00d7>
    2daa:	00672423          	sw	t1,8(a4) # d008 <_data_lma+0x7104>
    2dae:	1ffff617          	auipc	a2,0x1ffff
    2db2:	f8d60d23          	sb	a3,-102(a2) # 20001d48 <gBleIPPara+0x4>
    2db6:	0586                	slli	a1,a1,0x1
    2db8:	95be                	add	a1,a1,a5
    2dba:	0586                	slli	a1,a1,0x1
    2dbc:	67bd                	lui	a5,0xf
    2dbe:	d36c                	sw	a1,100(a4)
    2dc0:	07bd                	addi	a5,a5,15
    2dc2:	c75c                	sw	a5,12(a4)
    2dc4:	8082                	ret
    2dc6:	c314                	sw	a3,0(a4)
    2dc8:	6735                	lui	a4,0xd
    2dca:	073d                	addi	a4,a4,15
    2dcc:	00e82623          	sw	a4,12(a6)
    2dd0:	0001                	nop
    2dd2:	0001                	nop
    2dd4:	4218                	lw	a4,0(a2)
    2dd6:	f8000693          	li	a3,-128
    2dda:	04a58593          	addi	a1,a1,74
    2dde:	00672423          	sw	t1,8(a4) # d008 <_data_lma+0x7104>
    2de2:	1ffff617          	auipc	a2,0x1ffff
    2de6:	f6d60323          	sb	a3,-154(a2) # 20001d48 <gBleIPPara+0x4>
    2dea:	058e                	slli	a1,a1,0x3
    2dec:	b7f1                	j	2db8 <BLE_SetPHYTxMode+0x9a>
    2dee:	76f5                	lui	a3,0xffffd
    2df0:	fff68893          	addi	a7,a3,-1 # ffffcfff <_eusrstack+0xdffecfff>
    2df4:	4314                	lw	a3,0(a4)
    2df6:	8905                	andi	a0,a0,1
    2df8:	09e78793          	addi	a5,a5,158 # f09e <_data_lma+0x919a>
    2dfc:	0116f6b3          	and	a3,a3,a7
    2e00:	c505                	beqz	a0,2e28 <BLE_SetPHYTxMode+0x10a>
    2e02:	c314                	sw	a3,0(a4)
    2e04:	6735                	lui	a4,0xd
    2e06:	073d                	addi	a4,a4,15
    2e08:	00e82623          	sw	a4,12(a6)
    2e0c:	0001                	nop
    2e0e:	0001                	nop
    2e10:	4218                	lw	a4,0(a2)
    2e12:	6689                	lui	a3,0x2
    2e14:	05ad                	addi	a1,a1,11
    2e16:	c714                	sw	a3,8(a4)
    2e18:	f8000693          	li	a3,-128
    2e1c:	1ffff617          	auipc	a2,0x1ffff
    2e20:	f2d60623          	sb	a3,-212(a2) # 20001d48 <gBleIPPara+0x4>
    2e24:	058a                	slli	a1,a1,0x2
    2e26:	bf49                	j	2db8 <BLE_SetPHYTxMode+0x9a>
    2e28:	6505                	lui	a0,0x1
    2e2a:	8ec9                	or	a3,a3,a0
    2e2c:	c314                	sw	a3,0(a4)
    2e2e:	6735                	lui	a4,0xd
    2e30:	073d                	addi	a4,a4,15
    2e32:	00e82623          	sw	a4,12(a6)
    2e36:	0001                	nop
    2e38:	0001                	nop
    2e3a:	4218                	lw	a4,0(a2)
    2e3c:	6689                	lui	a3,0x2
    2e3e:	05a9                	addi	a1,a1,10
    2e40:	c714                	sw	a3,8(a4)
    2e42:	f8000693          	li	a3,-128
    2e46:	1ffff617          	auipc	a2,0x1ffff
    2e4a:	f0d60123          	sb	a3,-254(a2) # 20001d48 <gBleIPPara+0x4>
    2e4e:	bf71                	j	2dea <BLE_SetPHYTxMode+0xcc>

00002e50 <BLE_SetPHYRxMode>:
    2e50:	1ffff797          	auipc	a5,0x1ffff
    2e54:	ef078793          	addi	a5,a5,-272 # 20001d40 <gPaControl>
    2e58:	439c                	lw	a5,0(a5)
    2e5a:	cf89                	beqz	a5,2e74 <BLE_SetPHYRxMode+0x24>
    2e5c:	43d4                	lw	a3,4(a5)
    2e5e:	0087a803          	lw	a6,8(a5)
    2e62:	4298                	lw	a4,0(a3)
    2e64:	01076733          	or	a4,a4,a6
    2e68:	c298                	sw	a4,0(a3)
    2e6a:	47d4                	lw	a3,12(a5)
    2e6c:	4bdc                	lw	a5,20(a5)
    2e6e:	4298                	lw	a4,0(a3)
    2e70:	8fd9                	or	a5,a5,a4
    2e72:	c29c                	sw	a5,0(a3)
    2e74:	1ffff797          	auipc	a5,0x1ffff
    2e78:	ec878793          	addi	a5,a5,-312 # 20001d3c <gptrBBReg>
    2e7c:	00257713          	andi	a4,a0,2
    2e80:	439c                	lw	a5,0(a5)
    2e82:	c335                	beqz	a4,2ee6 <BLE_SetPHYRxMode+0x96>
    2e84:	4398                	lw	a4,0(a5)
    2e86:	76f5                	lui	a3,0xffffd
    2e88:	16fd                	addi	a3,a3,-1
    2e8a:	8f75                	and	a4,a4,a3
    2e8c:	6689                	lui	a3,0x2
    2e8e:	8f55                	or	a4,a4,a3
    2e90:	c398                	sw	a4,0(a5)
    2e92:	00090737          	lui	a4,0x90
    2e96:	08670713          	addi	a4,a4,134 # 90086 <_data_lma+0x8a182>
    2e9a:	d398                	sw	a4,32(a5)
    2e9c:	0034a737          	lui	a4,0x34a
    2ea0:	4df70713          	addi	a4,a4,1247 # 34a4df <_data_lma+0x3445db>
    2ea4:	cb98                	sw	a4,16(a5)
    2ea6:	08302737          	lui	a4,0x8302
    2eaa:	1745                	addi	a4,a4,-15
    2eac:	cbd8                	sw	a4,20(a5)
    2eae:	00031737          	lui	a4,0x31
    2eb2:	61970713          	addi	a4,a4,1561 # 31619 <_data_lma+0x2b715>
    2eb6:	cf98                	sw	a4,24(a5)
    2eb8:	670d                	lui	a4,0x3
    2eba:	8de70713          	addi	a4,a4,-1826 # 28de <TMOS_TimerInit+0x56>
    2ebe:	d798                	sw	a4,40(a5)
    2ec0:	01006737          	lui	a4,0x1006
    2ec4:	31070713          	addi	a4,a4,784 # 1006310 <_data_lma+0x100040c>
    2ec8:	059e                	slli	a1,a1,0x7
    2eca:	d3d8                	sw	a4,36(a5)
    2ecc:	36458593          	addi	a1,a1,868
    2ed0:	1ffff797          	auipc	a5,0x1ffff
    2ed4:	e8b7a023          	sw	a1,-384(a5) # 20001d50 <gBleIPPara+0xc>
    2ed8:	c611                	beqz	a2,2ee4 <BLE_SetPHYRxMode+0x94>
    2eda:	0606                	slli	a2,a2,0x1
    2edc:	1ffff797          	auipc	a5,0x1ffff
    2ee0:	e6c7aa23          	sw	a2,-396(a5) # 20001d50 <gBleIPPara+0xc>
    2ee4:	8082                	ret
    2ee6:	00090737          	lui	a4,0x90
    2eea:	08370713          	addi	a4,a4,131 # 90083 <_data_lma+0x8a17f>
    2eee:	d398                	sw	a4,32(a5)
    2ef0:	00322737          	lui	a4,0x322
    2ef4:	2d070713          	addi	a4,a4,720 # 3222d0 <_data_lma+0x31c3cc>
    2ef8:	cb98                	sw	a4,16(a5)
    2efa:	08102737          	lui	a4,0x8102
    2efe:	90170713          	addi	a4,a4,-1791 # 8101901 <_data_lma+0x80fb9fd>
    2f02:	cbd8                	sw	a4,20(a5)
    2f04:	00031737          	lui	a4,0x31
    2f08:	62470713          	addi	a4,a4,1572 # 31624 <_data_lma+0x2b720>
    2f0c:	cf98                	sw	a4,24(a5)
    2f0e:	670d                	lui	a4,0x3
    2f10:	8be70713          	addi	a4,a4,-1858 # 28be <TMOS_TimerInit+0x36>
    2f14:	d798                	sw	a4,40(a5)
    2f16:	01006737          	lui	a4,0x1006
    2f1a:	31070713          	addi	a4,a4,784 # 1006310 <_data_lma+0x100040c>
    2f1e:	d3d8                	sw	a4,36(a5)
    2f20:	7775                	lui	a4,0xffffd
    2f22:	fff70693          	addi	a3,a4,-1 # ffffcfff <_eusrstack+0xdffecfff>
    2f26:	4398                	lw	a4,0(a5)
    2f28:	4805                	li	a6,1
    2f2a:	0595                	addi	a1,a1,5
    2f2c:	8f75                	and	a4,a4,a3
    2f2e:	01051763          	bne	a0,a6,2f3c <BLE_SetPHYRxMode+0xec>
    2f32:	c398                	sw	a4,0(a5)
    2f34:	058e                	slli	a1,a1,0x3
    2f36:	03c58593          	addi	a1,a1,60
    2f3a:	bf59                	j	2ed0 <BLE_SetPHYRxMode+0x80>
    2f3c:	6685                	lui	a3,0x1
    2f3e:	8f55                	or	a4,a4,a3
    2f40:	c398                	sw	a4,0(a5)
    2f42:	0592                	slli	a1,a1,0x4
    2f44:	bfcd                	j	2f36 <BLE_SetPHYRxMode+0xe6>

00002f46 <ll_multi_states_check>:
    2f46:	1ffff797          	auipc	a5,0x1ffff
    2f4a:	e077c783          	lbu	a5,-505(a5) # 20001d4d <gBleIPPara+0x9>
    2f4e:	e78d                	bnez	a5,2f78 <ll_multi_states_check+0x32>
    2f50:	1ffff717          	auipc	a4,0x1ffff
    2f54:	dfb74703          	lbu	a4,-517(a4) # 20001d4b <gBleIPPara+0x7>
    2f58:	ffb70793          	addi	a5,a4,-5
    2f5c:	0ff7f793          	andi	a5,a5,255
    2f60:	4689                	li	a3,2
    2f62:	00f6eb63          	bltu	a3,a5,2f78 <ll_multi_states_check+0x32>
    2f66:	1ffff797          	auipc	a5,0x1ffff
    2f6a:	dee78323          	sb	a4,-538(a5) # 20001d4c <gBleIPPara+0x8>
    2f6e:	4785                	li	a5,1
    2f70:	1ffff717          	auipc	a4,0x1ffff
    2f74:	dcf70ea3          	sb	a5,-547(a4) # 20001d4d <gBleIPPara+0x9>
    2f78:	8082                	ret

00002f7a <ll_multi_states_process>:
    2f7a:	1141                	addi	sp,sp,-16
    2f7c:	c606                	sw	ra,12(sp)
    2f7e:	1ffff717          	auipc	a4,0x1ffff
    2f82:	dce74703          	lbu	a4,-562(a4) # 20001d4c <gBleIPPara+0x8>
    2f86:	479d                	li	a5,7
    2f88:	02f71f63          	bne	a4,a5,2fc6 <ll_multi_states_process+0x4c>
    2f8c:	1ffff797          	auipc	a5,0x1ffff
    2f90:	dd87c783          	lbu	a5,-552(a5) # 20001d64 <rfConfig>
    2f94:	8b85                	andi	a5,a5,1
    2f96:	1ffff617          	auipc	a2,0x1ffff
    2f9a:	df164603          	lbu	a2,-527(a2) # 20001d87 <rfInfo+0x3>
    2f9e:	1ffff697          	auipc	a3,0x1ffff
    2fa2:	de86c683          	lbu	a3,-536(a3) # 20001d86 <rfInfo+0x2>
    2fa6:	c3b5                	beqz	a5,300a <ll_multi_states_process+0x90>
    2fa8:	1ffff797          	auipc	a5,0x1ffff
    2fac:	ddc78793          	addi	a5,a5,-548 # 20001d84 <rfInfo>
    2fb0:	43c8                	lw	a0,4(a5)
    2fb2:	cd21                	beqz	a0,300a <ll_multi_states_process+0x90>
    2fb4:	310c                	lbu	a1,1(a0)
    2fb6:	0509                	addi	a0,a0,2
    2fb8:	2e29                	jal	32d2 <RF_Rx>
    2fba:	c511                	beqz	a0,2fc6 <ll_multi_states_process+0x4c>
    2fbc:	4785                	li	a5,1
    2fbe:	1ffff717          	auipc	a4,0x1ffff
    2fc2:	d8f707a3          	sb	a5,-625(a4) # 20001d4d <gBleIPPara+0x9>
    2fc6:	1ffff717          	auipc	a4,0x1ffff
    2fca:	d8674703          	lbu	a4,-634(a4) # 20001d4c <gBleIPPara+0x8>
    2fce:	4795                	li	a5,5
    2fd0:	00f71a63          	bne	a4,a5,2fe4 <ll_multi_states_process+0x6a>
    2fd4:	1ffff797          	auipc	a5,0x1ffff
    2fd8:	dec78793          	addi	a5,a5,-532 # 20001dc0 <gBleLlPara>
    2fdc:	5bfc                	lw	a5,116(a5)
    2fde:	37bc                	lbu	a5,11(a5)
    2fe0:	cb85                	beqz	a5,3010 <ll_multi_states_process+0x96>
    2fe2:	36b1                	jal	2b2e <LL_ScanSetRF>
    2fe4:	1ffff717          	auipc	a4,0x1ffff
    2fe8:	d6874703          	lbu	a4,-664(a4) # 20001d4c <gBleIPPara+0x8>
    2fec:	4799                	li	a5,6
    2fee:	02f71163          	bne	a4,a5,3010 <ll_multi_states_process+0x96>
    2ff2:	1ffff797          	auipc	a5,0x1ffff
    2ff6:	dce78793          	addi	a5,a5,-562 # 20001dc0 <gBleLlPara>
    2ffa:	0847a783          	lw	a5,132(a5)
    2ffe:	33fc                	lbu	a5,7(a5)
    3000:	cb81                	beqz	a5,3010 <ll_multi_states_process+0x96>
    3002:	40b2                	lw	ra,12(sp)
    3004:	0141                	addi	sp,sp,16
    3006:	4ee0106f          	j	44f4 <LL_InitiateSetRF>
    300a:	4581                	li	a1,0
    300c:	4501                	li	a0,0
    300e:	b76d                	j	2fb8 <ll_multi_states_process+0x3e>
    3010:	40b2                	lw	ra,12(sp)
    3012:	0141                	addi	sp,sp,16
    3014:	8082                	ret

00003016 <ble_ll_hw_api_shut>:
    3016:	1ffff717          	auipc	a4,0x1ffff
    301a:	d4a70713          	addi	a4,a4,-694 # 20001d60 <gptrLLEReg>
    301e:	431c                	lw	a5,0(a4)
    3020:	4394                	lw	a3,0(a5)
    3022:	8a8d                	andi	a3,a3,3
    3024:	c285                	beqz	a3,3044 <ble_ll_hw_api_shut+0x2e>
    3026:	4bb4                	lw	a3,80(a5)
    3028:	9ae1                	andi	a3,a3,-8
    302a:	cbb4                	sw	a3,80(a5)
    302c:	4394                	lw	a3,0(a5)
    302e:	0086e693          	ori	a3,a3,8
    3032:	c394                	sw	a3,0(a5)
    3034:	439c                	lw	a5,0(a5)
    3036:	838d                	srli	a5,a5,0x3
    3038:	8b85                	andi	a5,a5,1
    303a:	c789                	beqz	a5,3044 <ble_ll_hw_api_shut+0x2e>
    303c:	0001                	nop
    303e:	0001                	nop
    3040:	0001                	nop
    3042:	0001                	nop
    3044:	1ffff797          	auipc	a5,0x1ffff
    3048:	cf878793          	addi	a5,a5,-776 # 20001d3c <gptrBBReg>
    304c:	4394                	lw	a3,0(a5)
    304e:	429c                	lw	a5,0(a3)
    3050:	e7f7f793          	andi	a5,a5,-385
    3054:	0807e793          	ori	a5,a5,128
    3058:	c29c                	sw	a5,0(a3)
    305a:	1ffff797          	auipc	a5,0x1ffff
    305e:	d5278793          	addi	a5,a5,-686 # 20001dac <gptrRFENDReg>
    3062:	4390                	lw	a2,0(a5)
    3064:	ffce06b7          	lui	a3,0xffce0
    3068:	16fd                	addi	a3,a3,-1
    306a:	461c                	lw	a5,8(a2)
    306c:	8ff5                	and	a5,a5,a3
    306e:	c61c                	sw	a5,8(a2)
    3070:	431c                	lw	a5,0(a4)
    3072:	0407a823          	sw	zero,80(a5)
    3076:	1ffff797          	auipc	a5,0x1ffff
    307a:	cca78793          	addi	a5,a5,-822 # 20001d40 <gPaControl>
    307e:	439c                	lw	a5,0(a5)
    3080:	cb99                	beqz	a5,3096 <ble_ll_hw_api_shut+0x80>
    3082:	43d4                	lw	a3,4(a5)
    3084:	4790                	lw	a2,8(a5)
    3086:	4298                	lw	a4,0(a3)
    3088:	8f51                	or	a4,a4,a2
    308a:	c298                	sw	a4,0(a3)
    308c:	4b94                	lw	a3,16(a5)
    308e:	4bdc                	lw	a5,20(a5)
    3090:	4298                	lw	a4,0(a3)
    3092:	8fd9                	or	a5,a5,a4
    3094:	c29c                	sw	a5,0(a3)
    3096:	1ffff797          	auipc	a5,0x1ffff
    309a:	ca078aa3          	sb	zero,-843(a5) # 20001d4b <gBleIPPara+0x7>
    309e:	8082                	ret

000030a0 <BLE_RegInit>:
    30a0:	1ffff797          	auipc	a5,0x1ffff
    30a4:	c9878793          	addi	a5,a5,-872 # 20001d38 <gptrAESReg>
    30a8:	4398                	lw	a4,0(a5)
    30aa:	400247b7          	lui	a5,0x40024
    30ae:	30078793          	addi	a5,a5,768 # 40024300 <_eusrstack+0x20014300>
    30b2:	0af71363          	bne	a4,a5,3158 <BLE_RegInit+0xb8>
    30b6:	1141                	addi	sp,sp,-16
    30b8:	c606                	sw	ra,12(sp)
    30ba:	c422                	sw	s0,8(sp)
    30bc:	c226                	sw	s1,4(sp)
    30be:	c04a                	sw	s2,0(sp)
    30c0:	2869                	jal	315a <LLE_DevInit>
    30c2:	1ffff917          	auipc	s2,0x1ffff
    30c6:	c7a90913          	addi	s2,s2,-902 # 20001d3c <gptrBBReg>
    30ca:	2135                	jal	34f6 <RFEND_DevInit>
    30cc:	3e75                	jal	2c88 <BB_DevInit>
    30ce:	00092783          	lw	a5,0(s2)
    30d2:	76f5                	lui	a3,0xffffd
    30d4:	16fd                	addi	a3,a3,-1
    30d6:	4398                	lw	a4,0(a5)
    30d8:	1ffff497          	auipc	s1,0x1ffff
    30dc:	cd448493          	addi	s1,s1,-812 # 20001dac <gptrRFENDReg>
    30e0:	1ffff417          	auipc	s0,0x1ffff
    30e4:	c8040413          	addi	s0,s0,-896 # 20001d60 <gptrLLEReg>
    30e8:	8f75                	and	a4,a4,a3
    30ea:	c398                	sw	a4,0(a5)
    30ec:	4398                	lw	a4,0(a5)
    30ee:	003306b7          	lui	a3,0x330
    30f2:	e7f77713          	andi	a4,a4,-385
    30f6:	c398                	sw	a4,0(a5)
    30f8:	4398                	lw	a4,0(a5)
    30fa:	e7f77713          	andi	a4,a4,-385
    30fe:	10076713          	ori	a4,a4,256
    3102:	c398                	sw	a4,0(a5)
    3104:	4098                	lw	a4,0(s1)
    3106:	471c                	lw	a5,8(a4)
    3108:	8fd5                	or	a5,a5,a3
    310a:	c71c                	sw	a5,8(a4)
    310c:	401c                	lw	a5,0(s0)
    310e:	05d00713          	li	a4,93
    3112:	cbb8                	sw	a4,80(a5)
    3114:	2d01                	jal	3724 <RFEND_TXCtune>
    3116:	32e010ef          	jal	ra,4444 <RFEND_TXFtune>
    311a:	2b81                	jal	366a <RFEND_RXFilter>
    311c:	23f9                	jal	36ea <RFEND_RXAdc>
    311e:	00092703          	lw	a4,0(s2)
    3122:	431c                	lw	a5,0(a4)
    3124:	e7f7f793          	andi	a5,a5,-385
    3128:	0807e793          	ori	a5,a5,128
    312c:	c31c                	sw	a5,0(a4)
    312e:	4094                	lw	a3,0(s1)
    3130:	ffce0737          	lui	a4,0xffce0
    3134:	177d                	addi	a4,a4,-1
    3136:	469c                	lw	a5,8(a3)
    3138:	8ff9                	and	a5,a5,a4
    313a:	c69c                	sw	a5,8(a3)
    313c:	401c                	lw	a5,0(s0)
    313e:	0407a823          	sw	zero,80(a5)
    3142:	3511                	jal	2f46 <ll_multi_states_check>
    3144:	40b2                	lw	ra,12(sp)
    3146:	4422                	lw	s0,8(sp)
    3148:	1ffff797          	auipc	a5,0x1ffff
    314c:	c00781a3          	sb	zero,-1021(a5) # 20001d4b <gBleIPPara+0x7>
    3150:	4492                	lw	s1,4(sp)
    3152:	4902                	lw	s2,0(sp)
    3154:	0141                	addi	sp,sp,16
    3156:	8082                	ret
    3158:	8082                	ret

0000315a <LLE_DevInit>:
    315a:	1ffff797          	auipc	a5,0x1ffff
    315e:	c0678793          	addi	a5,a5,-1018 # 20001d60 <gptrLLEReg>
    3162:	439c                	lw	a5,0(a5)
    3164:	08c00713          	li	a4,140
    3168:	06c00693          	li	a3,108
    316c:	cbd8                	sw	a4,20(a5)
    316e:	cfd4                	sw	a3,28(a5)
    3170:	d3d8                	sw	a4,36(a5)
    3172:	03c00613          	li	a2,60
    3176:	d7d0                	sw	a2,44(a5)
    3178:	dbd8                	sw	a4,52(a5)
    317a:	dfd0                	sw	a2,60(a5)
    317c:	c3f8                	sw	a4,68(a5)
    317e:	1ffff717          	auipc	a4,0x1ffff
    3182:	bc670713          	addi	a4,a4,-1082 # 20001d44 <gBleIPPara>
    3186:	4f18                	lw	a4,24(a4)
    3188:	c7f4                	sw	a3,76(a5)
    318a:	dbf8                	sw	a4,116(a5)
    318c:	6741                	lui	a4,0x10
    318e:	177d                	addi	a4,a4,-1
    3190:	c798                	sw	a4,8(a5)
    3192:	673d                	lui	a4,0xf
    3194:	073d                	addi	a4,a4,15
    3196:	c7d8                	sw	a4,12(a5)
    3198:	8082                	ret

0000319a <RF_DevSetChannel>:
    319a:	1ffff797          	auipc	a5,0x1ffff
    319e:	c1278793          	addi	a5,a5,-1006 # 20001dac <gptrRFENDReg>
    31a2:	4394                	lw	a3,0(a5)
    31a4:	1ffff797          	auipc	a5,0x1ffff
    31a8:	b9878793          	addi	a5,a5,-1128 # 20001d3c <gptrBBReg>
    31ac:	439c                	lw	a5,0(a5)
    31ae:	10058763          	beqz	a1,32bc <RF_DevSetChannel+0x122>
    31b2:	0024b737          	lui	a4,0x24b
    31b6:	e9f70713          	addi	a4,a4,-353 # 24ae9f <_data_lma+0x244f9b>
    31ba:	08a76663          	bltu	a4,a0,3246 <RF_DevSetChannel+0xac>
    31be:	4398                	lw	a4,0(a5)
    31c0:	f8077713          	andi	a4,a4,-128
    31c4:	02576713          	ori	a4,a4,37
    31c8:	c398                	sw	a4,0(a5)
    31ca:	0015f713          	andi	a4,a1,1
    31ce:	cb01                	beqz	a4,31de <RF_DevSetChannel+0x44>
    31d0:	0305f593          	andi	a1,a1,48
    31d4:	4741                	li	a4,16
    31d6:	0ee59063          	bne	a1,a4,32b6 <RF_DevSetChannel+0x11c>
    31da:	83050513          	addi	a0,a0,-2000 # 830 <__stack_size+0x30>
    31de:	56d8                	lw	a4,44(a3)
    31e0:	fe100837          	lui	a6,0xfe100
    31e4:	187d                	addi	a6,a6,-1
    31e6:	00276713          	ori	a4,a4,2
    31ea:	d6d8                	sw	a4,44(a3)
    31ec:	6741                	lui	a4,0x10
    31ee:	a0070713          	addi	a4,a4,-1536 # fa00 <_data_lma+0x9afc>
    31f2:	02e55633          	divu	a2,a0,a4
    31f6:	02e57533          	remu	a0,a0,a4
    31fa:	0fa00713          	li	a4,250
    31fe:	8a7d                	andi	a2,a2,31
    3200:	01461593          	slli	a1,a2,0x14
    3204:	42f0                	lw	a2,68(a3)
    3206:	01067633          	and	a2,a2,a6
    320a:	8e4d                	or	a2,a2,a1
    320c:	c2f0                	sw	a2,68(a3)
    320e:	fffc0637          	lui	a2,0xfffc0
    3212:	052a                	slli	a0,a0,0xa
    3214:	02e55533          	divu	a0,a0,a4
    3218:	42f8                	lw	a4,68(a3)
    321a:	8f71                	and	a4,a4,a2
    321c:	053a                	slli	a0,a0,0xe
    321e:	8139                	srli	a0,a0,0xe
    3220:	8d59                	or	a0,a0,a4
    3222:	c2e8                	sw	a0,68(a3)
    3224:	1ffff717          	auipc	a4,0x1ffff
    3228:	b4074703          	lbu	a4,-1216(a4) # 20001d64 <rfConfig>
    322c:	8b09                	andi	a4,a4,2
    322e:	cb19                	beqz	a4,3244 <RF_DevSetChannel+0xaa>
    3230:	4398                	lw	a4,0(a5)
    3232:	07f77713          	andi	a4,a4,127
    3236:	04076693          	ori	a3,a4,64
    323a:	4398                	lw	a4,0(a5)
    323c:	f8077713          	andi	a4,a4,-128
    3240:	8f55                	or	a4,a4,a3
    3242:	c398                	sw	a4,0(a5)
    3244:	8082                	ret
    3246:	00250737          	lui	a4,0x250
    324a:	48f70613          	addi	a2,a4,1167 # 25048f <_data_lma+0x24a58b>
    324e:	02a66363          	bltu	a2,a0,3274 <RF_DevSetChannel+0xda>
    3252:	ffdb6737          	lui	a4,0xffdb6
    3256:	93070713          	addi	a4,a4,-1744 # ffdb5930 <_eusrstack+0xdfda5930>
    325a:	972a                	add	a4,a4,a0
    325c:	7d000613          	li	a2,2000
    3260:	02c75733          	divu	a4,a4,a2
    3264:	177d                	addi	a4,a4,-1
    3266:	4390                	lw	a2,0(a5)
    3268:	07f77713          	andi	a4,a4,127
    326c:	f8067613          	andi	a2,a2,-128
    3270:	8f51                	or	a4,a4,a2
    3272:	bf99                	j	31c8 <RF_DevSetChannel+0x2e>
    3274:	49070713          	addi	a4,a4,1168
    3278:	00e51863          	bne	a0,a4,3288 <RF_DevSetChannel+0xee>
    327c:	4398                	lw	a4,0(a5)
    327e:	f8077713          	andi	a4,a4,-128
    3282:	02676713          	ori	a4,a4,38
    3286:	b789                	j	31c8 <RF_DevSetChannel+0x2e>
    3288:	0025d737          	lui	a4,0x25d
    328c:	77f70713          	addi	a4,a4,1919 # 25d77f <_data_lma+0x25787b>
    3290:	00a76d63          	bltu	a4,a0,32aa <RF_DevSetChannel+0x110>
    3294:	ffdb6737          	lui	a4,0xffdb6
    3298:	93070713          	addi	a4,a4,-1744 # ffdb5930 <_eusrstack+0xdfda5930>
    329c:	972a                	add	a4,a4,a0
    329e:	7d000613          	li	a2,2000
    32a2:	02c75733          	divu	a4,a4,a2
    32a6:	1779                	addi	a4,a4,-2
    32a8:	bf7d                	j	3266 <RF_DevSetChannel+0xcc>
    32aa:	4398                	lw	a4,0(a5)
    32ac:	f8077713          	andi	a4,a4,-128
    32b0:	02776713          	ori	a4,a4,39
    32b4:	bf11                	j	31c8 <RF_DevSetChannel+0x2e>
    32b6:	c1850513          	addi	a0,a0,-1000
    32ba:	b715                	j	31de <RF_DevSetChannel+0x44>
    32bc:	56d8                	lw	a4,44(a3)
    32be:	07f57513          	andi	a0,a0,127
    32c2:	9b75                	andi	a4,a4,-3
    32c4:	d6d8                	sw	a4,44(a3)
    32c6:	4398                	lw	a4,0(a5)
    32c8:	f8077713          	andi	a4,a4,-128
    32cc:	8d59                	or	a0,a0,a4
    32ce:	c388                	sw	a0,0(a5)
    32d0:	bf91                	j	3224 <RF_DevSetChannel+0x8a>

000032d2 <RF_Rx>:
    32d2:	1ffff797          	auipc	a5,0x1ffff
    32d6:	aee78793          	addi	a5,a5,-1298 # 20001dc0 <gBleLlPara>
    32da:	0987a783          	lw	a5,152(a5)
    32de:	cf91                	beqz	a5,32fa <RF_Rx+0x28>
    32e0:	4505                	li	a0,1
    32e2:	8082                	ret
    32e4:	4505                	li	a0,1
    32e6:	40f2                	lw	ra,28(sp)
    32e8:	4462                	lw	s0,24(sp)
    32ea:	44d2                	lw	s1,20(sp)
    32ec:	4942                	lw	s2,16(sp)
    32ee:	49b2                	lw	s3,12(sp)
    32f0:	4a22                	lw	s4,8(sp)
    32f2:	4a92                	lw	s5,4(sp)
    32f4:	4b02                	lw	s6,0(sp)
    32f6:	6105                	addi	sp,sp,32
    32f8:	8082                	ret
    32fa:	1101                	addi	sp,sp,-32
    32fc:	ca26                	sw	s1,20(sp)
    32fe:	1ffff497          	auipc	s1,0x1ffff
    3302:	a6648493          	addi	s1,s1,-1434 # 20001d64 <rfConfig>
    3306:	449c                	lw	a5,8(s1)
    3308:	ce06                	sw	ra,28(sp)
    330a:	cc22                	sw	s0,24(sp)
    330c:	c84a                	sw	s2,16(sp)
    330e:	c64e                	sw	s3,12(sp)
    3310:	c452                	sw	s4,8(sp)
    3312:	c256                	sw	s5,4(sp)
    3314:	c05a                	sw	s6,0(sp)
    3316:	d7f9                	beqz	a5,32e4 <RF_Rx+0x12>
    3318:	1ffff917          	auipc	s2,0x1ffff
    331c:	a4890913          	addi	s2,s2,-1464 # 20001d60 <gptrLLEReg>
    3320:	00092783          	lw	a5,0(s2)
    3324:	4398                	lw	a4,0(a5)
    3326:	8b0d                	andi	a4,a4,3
    3328:	c305                	beqz	a4,3348 <RF_Rx+0x76>
    332a:	4bb8                	lw	a4,80(a5)
    332c:	9b61                	andi	a4,a4,-8
    332e:	cbb8                	sw	a4,80(a5)
    3330:	4398                	lw	a4,0(a5)
    3332:	00876713          	ori	a4,a4,8
    3336:	c398                	sw	a4,0(a5)
    3338:	439c                	lw	a5,0(a5)
    333a:	838d                	srli	a5,a5,0x3
    333c:	8b85                	andi	a5,a5,1
    333e:	c789                	beqz	a5,3348 <RF_Rx+0x76>
    3340:	0001                	nop
    3342:	0001                	nop
    3344:	0001                	nop
    3346:	0001                	nop
    3348:	1ffff417          	auipc	s0,0x1ffff
    334c:	a3c40413          	addi	s0,s0,-1476 # 20001d84 <rfInfo>
    3350:	245c                	lbu	a5,12(s0)
    3352:	8ab6                	mv	s5,a3
    3354:	8b32                	mv	s6,a2
    3356:	8b91                	andi	a5,a5,4
    3358:	89ae                	mv	s3,a1
    335a:	8a2a                	mv	s4,a0
    335c:	eb89                	bnez	a5,336e <RF_Rx+0x9c>
    335e:	1ffff597          	auipc	a1,0x1ffff
    3362:	a065c583          	lbu	a1,-1530(a1) # 20001d64 <rfConfig>
    3366:	0405f793          	andi	a5,a1,64
    336a:	14079363          	bnez	a5,34b0 <RF_Rx+0x1de>
    336e:	4581                	li	a1,0
    3370:	1ffff517          	auipc	a0,0x1ffff
    3374:	9f554503          	lbu	a0,-1547(a0) # 20001d65 <rfConfig+0x1>
    3378:	350d                	jal	319a <RF_DevSetChannel>
    337a:	1ffff517          	auipc	a0,0x1ffff
    337e:	9ea54503          	lbu	a0,-1558(a0) # 20001d64 <rfConfig>
    3382:	8511                	srai	a0,a0,0x4
    3384:	4601                	li	a2,0
    3386:	1ffff597          	auipc	a1,0x1ffff
    338a:	9fa5c583          	lbu	a1,-1542(a1) # 20001d80 <rfConfig+0x1c>
    338e:	890d                	andi	a0,a0,3
    3390:	ac1ff0ef          	jal	ra,2e50 <BLE_SetPHYRxMode>
    3394:	1ffff717          	auipc	a4,0x1ffff
    3398:	9a870713          	addi	a4,a4,-1624 # 20001d3c <gptrBBReg>
    339c:	4494                	lw	a3,8(s1)
    339e:	431c                	lw	a5,0(a4)
    33a0:	c794                	sw	a3,8(a5)
    33a2:	44d4                	lw	a3,12(s1)
    33a4:	c3d4                	sw	a3,4(a5)
    33a6:	209c                	lbu	a5,0(s1)
    33a8:	00092683          	lw	a3,0(s2)
    33ac:	84ba                	mv	s1,a4
    33ae:	8b85                	andi	a5,a5,1
    33b0:	c2dc                	sw	a5,4(a3)
    33b2:	1ffff797          	auipc	a5,0x1ffff
    33b6:	9d678aa3          	sb	s6,-1579(a5) # 20001d87 <rfInfo+0x3>
    33ba:	1ffff797          	auipc	a5,0x1ffff
    33be:	9d578623          	sb	s5,-1588(a5) # 20001d86 <rfInfo+0x2>
    33c2:	42dc                	lw	a5,4(a3)
    33c4:	8b85                	andi	a5,a5,1
    33c6:	cba9                	beqz	a5,3418 <RF_Rx+0x146>
    33c8:	405c                	lw	a5,4(s0)
    33ca:	ef91                	bnez	a5,33e6 <RF_Rx+0x114>
    33cc:	1ffff517          	auipc	a0,0x1ffff
    33d0:	9b554503          	lbu	a0,-1611(a0) # 20001d81 <rfConfig+0x1d>
    33d4:	04900593          	li	a1,73
    33d8:	0509                	addi	a0,a0,2
    33da:	afbfd0ef          	jal	ra,ed4 <tmos_memory_allocate>
    33de:	1ffff797          	auipc	a5,0x1ffff
    33e2:	9aa7a523          	sw	a0,-1622(a5) # 20001d88 <rfInfo+0x4>
    33e6:	405c                	lw	a5,4(s0)
    33e8:	ee078ee3          	beqz	a5,32e4 <RF_Rx+0x12>
    33ec:	1ffff717          	auipc	a4,0x1ffff
    33f0:	99a74703          	lbu	a4,-1638(a4) # 20001d86 <rfInfo+0x2>
    33f4:	a398                	sb	a4,0(a5)
    33f6:	405c                	lw	a5,4(s0)
    33f8:	0c0a0263          	beqz	s4,34bc <RF_Rx+0x1ea>
    33fc:	0c098063          	beqz	s3,34bc <RF_Rx+0x1ea>
    3400:	013780a3          	sb	s3,1(a5)
    3404:	4048                	lw	a0,4(s0)
    3406:	864e                	mv	a2,s3
    3408:	85d2                	mv	a1,s4
    340a:	0509                	addi	a0,a0,2
    340c:	ee1fc0ef          	jal	ra,2ec <tmos_memcpy>
    3410:	00092783          	lw	a5,0(s2)
    3414:	4058                	lw	a4,4(s0)
    3416:	dbb8                	sw	a4,112(a5)
    3418:	363d                	jal	2f46 <ll_multi_states_check>
    341a:	247c                	lbu	a5,14(s0)
    341c:	0047e793          	ori	a5,a5,4
    3420:	1ffff717          	auipc	a4,0x1ffff
    3424:	96f70923          	sb	a5,-1678(a4) # 20001d92 <rfInfo+0xe>
    3428:	04000793          	li	a5,64
    342c:	1ffff717          	auipc	a4,0x1ffff
    3430:	90f70c23          	sb	a5,-1768(a4) # 20001d44 <gBleIPPara>
    3434:	1ffff797          	auipc	a5,0x1ffff
    3438:	90078a23          	sb	zero,-1772(a5) # 20001d48 <gBleIPPara+0x4>
    343c:	479d                	li	a5,7
    343e:	1ffff717          	auipc	a4,0x1ffff
    3442:	90f706a3          	sb	a5,-1779(a4) # 20001d4b <gBleIPPara+0x7>
    3446:	1ffff797          	auipc	a5,0x1ffff
    344a:	8a678793          	addi	a5,a5,-1882 # 20001cec <ble>
    344e:	57dc                	lw	a5,44(a5)
    3450:	cb91                	beqz	a5,3464 <RF_Rx+0x192>
    3452:	64000613          	li	a2,1600
    3456:	45c1                	li	a1,16
    3458:	1ffff517          	auipc	a0,0x1ffff
    345c:	93c54503          	lbu	a0,-1732(a0) # 20001d94 <rfInfo+0x10>
    3460:	fa1fe0ef          	jal	ra,2400 <tmos_start_task>
    3464:	1ffff797          	auipc	a5,0x1ffff
    3468:	8e0782a3          	sb	zero,-1819(a5) # 20001d49 <gBleIPPara+0x5>
    346c:	00092683          	lw	a3,0(s2)
    3470:	1ffff797          	auipc	a5,0x1ffff
    3474:	8c078aa3          	sb	zero,-1835(a5) # 20001d45 <gBleIPPara+0x1>
    3478:	4098                	lw	a4,0(s1)
    347a:	4785                	li	a5,1
    347c:	c29c                	sw	a5,0(a3)
    347e:	431c                	lw	a5,0(a4)
    3480:	00330637          	lui	a2,0x330
    3484:	4501                	li	a0,0
    3486:	e7f7f793          	andi	a5,a5,-385
    348a:	c31c                	sw	a5,0(a4)
    348c:	431c                	lw	a5,0(a4)
    348e:	e7f7f793          	andi	a5,a5,-385
    3492:	1007e793          	ori	a5,a5,256
    3496:	c31c                	sw	a5,0(a4)
    3498:	1ffff797          	auipc	a5,0x1ffff
    349c:	91478793          	addi	a5,a5,-1772 # 20001dac <gptrRFENDReg>
    34a0:	4398                	lw	a4,0(a5)
    34a2:	471c                	lw	a5,8(a4)
    34a4:	8fd1                	or	a5,a5,a2
    34a6:	c71c                	sw	a5,8(a4)
    34a8:	05900793          	li	a5,89
    34ac:	cabc                	sw	a5,80(a3)
    34ae:	bd25                	j	32e6 <RF_Rx+0x14>
    34b0:	0305f593          	andi	a1,a1,48
    34b4:	0015e593          	ori	a1,a1,1
    34b8:	40c8                	lw	a0,4(s1)
    34ba:	bd7d                	j	3378 <RF_Rx+0xa6>
    34bc:	000780a3          	sb	zero,1(a5)
    34c0:	bf81                	j	3410 <RF_Rx+0x13e>

000034c2 <RFEND_Reset>:
    34c2:	1ffff797          	auipc	a5,0x1ffff
    34c6:	8ea78793          	addi	a5,a5,-1814 # 20001dac <gptrRFENDReg>
    34ca:	4394                	lw	a3,0(a5)
    34cc:	6705                	lui	a4,0x1
    34ce:	10170713          	addi	a4,a4,257 # 1101 <SPI1_IRQHandler+0x1>
    34d2:	c6d8                	sw	a4,12(a3)
    34d4:	4751                	li	a4,20
    34d6:	0001                	nop
    34d8:	177d                	addi	a4,a4,-1
    34da:	ff75                	bnez	a4,34d6 <RFEND_Reset+0x14>
    34dc:	4398                	lw	a4,0(a5)
    34de:	00072623          	sw	zero,12(a4)
    34e2:	4751                	li	a4,20
    34e4:	0001                	nop
    34e6:	177d                	addi	a4,a4,-1
    34e8:	ff75                	bnez	a4,34e4 <RFEND_Reset+0x22>
    34ea:	4398                	lw	a4,0(a5)
    34ec:	6785                	lui	a5,0x1
    34ee:	10178793          	addi	a5,a5,257 # 1101 <SPI1_IRQHandler+0x1>
    34f2:	c75c                	sw	a5,12(a4)
    34f4:	8082                	ret

000034f6 <RFEND_DevInit>:
    34f6:	1141                	addi	sp,sp,-16
    34f8:	c606                	sw	ra,12(sp)
    34fa:	37e1                	jal	34c2 <RFEND_Reset>
    34fc:	1ffff797          	auipc	a5,0x1ffff
    3500:	8b078793          	addi	a5,a5,-1872 # 20001dac <gptrRFENDReg>
    3504:	439c                	lw	a5,0(a5)
    3506:	48000713          	li	a4,1152
    350a:	90000337          	lui	t1,0x90000
    350e:	d798                	sw	a4,40(a5)
    3510:	47b8                	lw	a4,72(a5)
    3512:	137d                	addi	t1,t1,-1
    3514:	20000e37          	lui	t3,0x20000
    3518:	00677733          	and	a4,a4,t1
    351c:	01c76733          	or	a4,a4,t3
    3520:	c7b8                	sw	a4,72(a5)
    3522:	47b8                	lw	a4,72(a5)
    3524:	f90006b7          	lui	a3,0xf9000
    3528:	16fd                	addi	a3,a3,-1
    352a:	8f75                	and	a4,a4,a3
    352c:	04000637          	lui	a2,0x4000
    3530:	8f51                	or	a4,a4,a2
    3532:	c7b8                	sw	a4,72(a5)
    3534:	47b8                	lw	a4,72(a5)
    3536:	fff90637          	lui	a2,0xfff90
    353a:	167d                	addi	a2,a2,-1
    353c:	9b41                	andi	a4,a4,-16
    353e:	00976713          	ori	a4,a4,9
    3542:	c7b8                	sw	a4,72(a5)
    3544:	47b8                	lw	a4,72(a5)
    3546:	800008b7          	lui	a7,0x80000
    354a:	02000eb7          	lui	t4,0x2000
    354e:	8f71                	and	a4,a4,a2
    3550:	c7b8                	sw	a4,72(a5)
    3552:	47b8                	lw	a4,72(a5)
    3554:	ff000637          	lui	a2,0xff000
    3558:	167d                	addi	a2,a2,-1
    355a:	01176733          	or	a4,a4,a7
    355e:	c7b8                	sw	a4,72(a5)
    3560:	47f8                	lw	a4,76(a5)
    3562:	7545                	lui	a0,0xffff1
    3564:	1e7d                	addi	t3,t3,-1
    3566:	9b61                	andi	a4,a4,-8
    3568:	00376713          	ori	a4,a4,3
    356c:	c7f8                	sw	a4,76(a5)
    356e:	47f8                	lw	a4,76(a5)
    3570:	f8f77713          	andi	a4,a4,-113
    3574:	03076713          	ori	a4,a4,48
    3578:	c7f8                	sw	a4,76(a5)
    357a:	47ec                	lw	a1,76(a5)
    357c:	8ff5f593          	andi	a1,a1,-1793
    3580:	3005e593          	ori	a1,a1,768
    3584:	c7ec                	sw	a1,76(a5)
    3586:	47f8                	lw	a4,76(a5)
    3588:	8f71                	and	a4,a4,a2
    358a:	c7f8                	sw	a4,76(a5)
    358c:	47f8                	lw	a4,76(a5)
    358e:	6611                	lui	a2,0x4
    3590:	01d76733          	or	a4,a4,t4
    3594:	c7f8                	sw	a4,76(a5)
    3596:	0507a803          	lw	a6,80(a5)
    359a:	fff50713          	addi	a4,a0,-1 # ffff0fff <_eusrstack+0xdffe0fff>
    359e:	757d                	lui	a0,0xfffff
    35a0:	00e87833          	and	a6,a6,a4
    35a4:	00c86833          	or	a6,a6,a2
    35a8:	0507a823          	sw	a6,80(a5)
    35ac:	0547a803          	lw	a6,84(a5)
    35b0:	157d                	addi	a0,a0,-1
    35b2:	ff087813          	andi	a6,a6,-16
    35b6:	00c86813          	ori	a6,a6,12
    35ba:	0507aa23          	sw	a6,84(a5)
    35be:	4bf0                	lw	a2,84(a5)
    35c0:	08066613          	ori	a2,a2,128
    35c4:	cbf0                	sw	a2,84(a5)
    35c6:	4bf0                	lw	a2,84(a5)
    35c8:	8e69                	and	a2,a2,a0
    35ca:	cbf0                	sw	a2,84(a5)
    35cc:	5fc8                	lw	a0,60(a5)
    35ce:	8d79                	and	a0,a0,a4
    35d0:	6721                	lui	a4,0x8
    35d2:	8d59                	or	a0,a0,a4
    35d4:	dfc8                	sw	a0,60(a5)
    35d6:	5fcc                	lw	a1,60(a5)
    35d8:	40000737          	lui	a4,0x40000
    35dc:	8df5                	and	a1,a1,a3
    35de:	01d5e5b3          	or	a1,a1,t4
    35e2:	dfcc                	sw	a1,60(a5)
    35e4:	5fd0                	lw	a2,60(a5)
    35e6:	007005b7          	lui	a1,0x700
    35ea:	01c67633          	and	a2,a2,t3
    35ee:	8e59                	or	a2,a2,a4
    35f0:	dfd0                	sw	a2,60(a5)
    35f2:	57d0                	lw	a2,44(a5)
    35f4:	6709                	lui	a4,0x2
    35f6:	8e4d                	or	a2,a2,a1
    35f8:	d7d0                	sw	a2,44(a5)
    35fa:	57d0                	lw	a2,44(a5)
    35fc:	8ef1                	and	a3,a3,a2
    35fe:	d7d4                	sw	a3,44(a5)
    3600:	57d4                	lw	a3,44(a5)
    3602:	7675                	lui	a2,0xffffd
    3604:	167d                	addi	a2,a2,-1
    3606:	8ef1                	and	a3,a3,a2
    3608:	8ed9                	or	a3,a3,a4
    360a:	d7d4                	sw	a3,44(a5)
    360c:	57d4                	lw	a3,44(a5)
    360e:	fffd0637          	lui	a2,0xfffd0
    3612:	167d                	addi	a2,a2,-1
    3614:	00020737          	lui	a4,0x20
    3618:	8ef1                	and	a3,a3,a2
    361a:	8ed9                	or	a3,a3,a4
    361c:	d7d4                	sw	a3,44(a5)
    361e:	5b94                	lw	a3,48(a5)
    3620:	9ac1                	andi	a3,a3,-16
    3622:	db94                	sw	a3,48(a5)
    3624:	5b94                	lw	a3,48(a5)
    3626:	f0f6f693          	andi	a3,a3,-241
    362a:	db94                	sw	a3,48(a5)
    362c:	5b94                	lw	a3,48(a5)
    362e:	8ff6f693          	andi	a3,a3,-1793
    3632:	db94                	sw	a3,48(a5)
    3634:	5b98                	lw	a4,48(a5)
    3636:	500006b7          	lui	a3,0x50000
    363a:	8f4d                	or	a4,a4,a1
    363c:	db98                	sw	a4,48(a5)
    363e:	5b98                	lw	a4,48(a5)
    3640:	00677733          	and	a4,a4,t1
    3644:	8f55                	or	a4,a4,a3
    3646:	db98                	sw	a4,48(a5)
    3648:	5f98                	lw	a4,56(a5)
    364a:	ff0806b7          	lui	a3,0xff080
    364e:	16fd                	addi	a3,a3,-1
    3650:	8f75                	and	a4,a4,a3
    3652:	001006b7          	lui	a3,0x100
    3656:	8f55                	or	a4,a4,a3
    3658:	df98                	sw	a4,56(a5)
    365a:	5f98                	lw	a4,56(a5)
    365c:	011768b3          	or	a7,a4,a7
    3660:	0317ac23          	sw	a7,56(a5)
    3664:	40b2                	lw	ra,12(sp)
    3666:	0141                	addi	sp,sp,16
    3668:	8082                	ret

0000366a <RFEND_RXFilter>:
    366a:	1fffe717          	auipc	a4,0x1fffe
    366e:	74270713          	addi	a4,a4,1858 # 20001dac <gptrRFENDReg>
    3672:	431c                	lw	a5,0(a4)
    3674:	7641                	lui	a2,0xffff0
    3676:	167d                	addi	a2,a2,-1
    3678:	4bb4                	lw	a3,80(a5)
    367a:	8ef1                	and	a3,a3,a2
    367c:	cbb4                	sw	a3,80(a5)
    367e:	4794                	lw	a3,8(a5)
    3680:	00200637          	lui	a2,0x200
    3684:	8ed1                	or	a3,a3,a2
    3686:	c794                	sw	a3,8(a5)
    3688:	47d4                	lw	a3,12(a5)
    368a:	0106e693          	ori	a3,a3,16
    368e:	c7d4                	sw	a3,12(a5)
    3690:	47d4                	lw	a3,12(a5)
    3692:	9abd                	andi	a3,a3,-17
    3694:	c7d4                	sw	a3,12(a5)
    3696:	0001                	nop
    3698:	0001                	nop
    369a:	0001                	nop
    369c:	0001                	nop
    369e:	4314                	lw	a3,0(a4)
    36a0:	6605                	lui	a2,0x1
    36a2:	46dc                	lw	a5,12(a3)
    36a4:	0107e793          	ori	a5,a5,16
    36a8:	c6dc                	sw	a5,12(a3)
    36aa:	42dc                	lw	a5,4(a3)
    36ac:	8fd1                	or	a5,a5,a2
    36ae:	c2dc                	sw	a5,4(a3)
    36b0:	09c6a783          	lw	a5,156(a3) # 10009c <_data_lma+0xfa198>
    36b4:	83a1                	srli	a5,a5,0x8
    36b6:	8b85                	andi	a5,a5,1
    36b8:	dfe5                	beqz	a5,36b0 <RFEND_RXFilter+0x46>
    36ba:	0001                	nop
    36bc:	0001                	nop
    36be:	0001                	nop
    36c0:	0001                	nop
    36c2:	431c                	lw	a5,0(a4)
    36c4:	6641                	lui	a2,0x10
    36c6:	09c7a703          	lw	a4,156(a5)
    36ca:	4bb4                	lw	a3,80(a5)
    36cc:	8ed1                	or	a3,a3,a2
    36ce:	cbb4                	sw	a3,80(a5)
    36d0:	01f77693          	andi	a3,a4,31
    36d4:	4bb8                	lw	a4,80(a5)
    36d6:	9b01                	andi	a4,a4,-32
    36d8:	8f55                	or	a4,a4,a3
    36da:	cbb8                	sw	a4,80(a5)
    36dc:	4798                	lw	a4,8(a5)
    36de:	ffe006b7          	lui	a3,0xffe00
    36e2:	16fd                	addi	a3,a3,-1
    36e4:	8f75                	and	a4,a4,a3
    36e6:	c798                	sw	a4,8(a5)
    36e8:	8082                	ret

000036ea <RFEND_RXAdc>:
    36ea:	1fffe797          	auipc	a5,0x1fffe
    36ee:	6c278793          	addi	a5,a5,1730 # 20001dac <gptrRFENDReg>
    36f2:	439c                	lw	a5,0(a5)
    36f4:	7741                	lui	a4,0xffff0
    36f6:	177d                	addi	a4,a4,-1
    36f8:	4fb4                	lw	a3,88(a5)
    36fa:	6641                	lui	a2,0x10
    36fc:	8ef9                	and	a3,a3,a4
    36fe:	cfb4                	sw	a3,88(a5)
    3700:	4794                	lw	a3,8(a5)
    3702:	8ed1                	or	a3,a3,a2
    3704:	c794                	sw	a3,8(a5)
    3706:	47d4                	lw	a3,12(a5)
    3708:	eff6f693          	andi	a3,a3,-257
    370c:	c7d4                	sw	a3,12(a5)
    370e:	43d4                	lw	a3,4(a5)
    3710:	8f75                	and	a4,a4,a3
    3712:	c3d8                	sw	a4,4(a5)
    3714:	47d4                	lw	a3,12(a5)
    3716:	1006e693          	ori	a3,a3,256
    371a:	c7d4                	sw	a3,12(a5)
    371c:	43d8                	lw	a4,4(a5)
    371e:	8f51                	or	a4,a4,a2
    3720:	c3d8                	sw	a4,4(a5)
    3722:	8082                	ret

00003724 <RFEND_TXCtune>:
    3724:	7139                	addi	sp,sp,-64
    3726:	dc22                	sw	s0,56(sp)
    3728:	1fffe417          	auipc	s0,0x1fffe
    372c:	68440413          	addi	s0,s0,1668 # 20001dac <gptrRFENDReg>
    3730:	401c                	lw	a5,0(s0)
    3732:	de06                	sw	ra,60(sp)
    3734:	da26                	sw	s1,52(sp)
    3736:	d84a                	sw	s2,48(sp)
    3738:	d64e                	sw	s3,44(sp)
    373a:	d452                	sw	s4,40(sp)
    373c:	d256                	sw	s5,36(sp)
    373e:	d05a                	sw	s6,32(sp)
    3740:	ce5e                	sw	s7,28(sp)
    3742:	cc62                	sw	s8,24(sp)
    3744:	ca66                	sw	s9,20(sp)
    3746:	c86a                	sw	s10,16(sp)
    3748:	c66e                	sw	s11,12(sp)
    374a:	43d8                	lw	a4,4(a5)
    374c:	76fd                	lui	a3,0xfffff
    374e:	16fd                	addi	a3,a3,-1
    3750:	eff77713          	andi	a4,a4,-257
    3754:	c3d8                	sw	a4,4(a5)
    3756:	5798                	lw	a4,40(a5)
    3758:	8f75                	and	a4,a4,a3
    375a:	d798                	sw	a4,40(a5)
    375c:	57d8                	lw	a4,44(a5)
    375e:	000206b7          	lui	a3,0x20
    3762:	9b3d                	andi	a4,a4,-17
    3764:	d7d8                	sw	a4,44(a5)
    3766:	4798                	lw	a4,8(a5)
    3768:	8f55                	or	a4,a4,a3
    376a:	c798                	sw	a4,8(a5)
    376c:	43d8                	lw	a4,4(a5)
    376e:	01076713          	ori	a4,a4,16
    3772:	c3d8                	sw	a4,4(a5)
    3774:	1fffe717          	auipc	a4,0x1fffe
    3778:	63070713          	addi	a4,a4,1584 # 20001da4 <ftuneFlag>
    377c:	4314                	lw	a3,0(a4)
    377e:	12345737          	lui	a4,0x12345
    3782:	67870713          	addi	a4,a4,1656 # 12345678 <_data_lma+0x1233f774>
    3786:	4ae689e3          	beq	a3,a4,4438 <RFEND_TXCtune+0xd14>
    378a:	43d8                	lw	a4,4(a5)
    378c:	7481                	lui	s1,0xfffe0
    378e:	0ff48493          	addi	s1,s1,255 # fffe00ff <_eusrstack+0xdffd00ff>
    3792:	9b79                	andi	a4,a4,-2
    3794:	c3d8                	sw	a4,4(a5)
    3796:	5f98                	lw	a4,56(a5)
    3798:	66b1                	lui	a3,0xc
    379a:	f0068693          	addi	a3,a3,-256 # bf00 <_data_lma+0x5ffc>
    379e:	8f65                	and	a4,a4,s1
    37a0:	8f55                	or	a4,a4,a3
    37a2:	df98                	sw	a4,56(a5)
    37a4:	43d8                	lw	a4,4(a5)
    37a6:	00176713          	ori	a4,a4,1
    37aa:	c3d8                	sw	a4,4(a5)
    37ac:	ef8fd0ef          	jal	ra,ea4 <RFEND_WaitTune>
    37b0:	401c                	lw	a5,0(s0)
    37b2:	0907a703          	lw	a4,144(a5)
    37b6:	03f77713          	andi	a4,a4,63
    37ba:	80e18ca3          	sb	a4,-2023(gp) # 20000089 <nCO2401>
    37be:	0947a703          	lw	a4,148(a5)
    37c2:	8329                	srli	a4,a4,0xa
    37c4:	07f77713          	andi	a4,a4,127
    37c8:	80e18d23          	sb	a4,-2022(gp) # 2000008a <nGA2401>
    37cc:	43d8                	lw	a4,4(a5)
    37ce:	66b9                	lui	a3,0xe
    37d0:	70068693          	addi	a3,a3,1792 # e700 <_data_lma+0x87fc>
    37d4:	9b79                	andi	a4,a4,-2
    37d6:	c3d8                	sw	a4,4(a5)
    37d8:	5f98                	lw	a4,56(a5)
    37da:	8f65                	and	a4,a4,s1
    37dc:	8f55                	or	a4,a4,a3
    37de:	df98                	sw	a4,56(a5)
    37e0:	43d8                	lw	a4,4(a5)
    37e2:	00176713          	ori	a4,a4,1
    37e6:	c3d8                	sw	a4,4(a5)
    37e8:	ebcfd0ef          	jal	ra,ea4 <RFEND_WaitTune>
    37ec:	401c                	lw	a5,0(s0)
    37ee:	0907a703          	lw	a4,144(a5)
    37f2:	03f77713          	andi	a4,a4,63
    37f6:	1fffe697          	auipc	a3,0x1fffe
    37fa:	5ae68da3          	sb	a4,1467(a3) # 20001db1 <nCO2480>
    37fe:	0947a703          	lw	a4,148(a5)
    3802:	8329                	srli	a4,a4,0xa
    3804:	07f77713          	andi	a4,a4,127
    3808:	1fffe697          	auipc	a3,0x1fffe
    380c:	5ae68023          	sb	a4,1440(a3) # 20001da8 <nGA2480>
    3810:	43d8                	lw	a4,4(a5)
    3812:	66b5                	lui	a3,0xd
    3814:	30068693          	addi	a3,a3,768 # d300 <_data_lma+0x73fc>
    3818:	9b79                	andi	a4,a4,-2
    381a:	c3d8                	sw	a4,4(a5)
    381c:	5f98                	lw	a4,56(a5)
    381e:	8f65                	and	a4,a4,s1
    3820:	8f55                	or	a4,a4,a3
    3822:	df98                	sw	a4,56(a5)
    3824:	43d8                	lw	a4,4(a5)
    3826:	00176713          	ori	a4,a4,1
    382a:	c3d8                	sw	a4,4(a5)
    382c:	e78fd0ef          	jal	ra,ea4 <RFEND_WaitTune>
    3830:	4018                	lw	a4,0(s0)
    3832:	09072783          	lw	a5,144(a4)
    3836:	03f7f793          	andi	a5,a5,63
    383a:	1fffe697          	auipc	a3,0x1fffe
    383e:	56f68b23          	sb	a5,1398(a3) # 20001db0 <nCO2440>
    3842:	09472783          	lw	a5,148(a4)
    3846:	83a9                	srli	a5,a5,0xa
    3848:	07f7f793          	andi	a5,a5,127
    384c:	1fffe717          	auipc	a4,0x1fffe
    3850:	54f70a23          	sb	a5,1364(a4) # 20001da0 <nGA2440>
    3854:	401c                	lw	a5,0(s0)
    3856:	1fffec17          	auipc	s8,0x1fffe
    385a:	55ac4c03          	lbu	s8,1370(s8) # 20001db0 <nCO2440>
    385e:	8191c683          	lbu	a3,-2023(gp) # 20000089 <nCO2401>
    3862:	0a07a703          	lw	a4,160(a5)
    3866:	418686b3          	sub	a3,a3,s8
    386a:	00f6f613          	andi	a2,a3,15
    386e:	9b41                	andi	a4,a4,-16
    3870:	8f51                	or	a4,a4,a2
    3872:	0ae7a023          	sw	a4,160(a5)
    3876:	02600713          	li	a4,38
    387a:	02e68733          	mul	a4,a3,a4
    387e:	02700613          	li	a2,39
    3882:	0a07a583          	lw	a1,160(a5)
    3886:	7e7d                	lui	t3,0xfffff
    3888:	0ffe0e13          	addi	t3,t3,255 # fffff0ff <_eusrstack+0xdffef0ff>
    388c:	f0f5f593          	andi	a1,a1,-241
    3890:	02400513          	li	a0,36
    3894:	7345                	lui	t1,0xffff1
    3896:	137d                	addi	t1,t1,-1
    3898:	02300413          	li	s0,35
    389c:	02c74733          	div	a4,a4,a2
    38a0:	fff108b7          	lui	a7,0xfff10
    38a4:	18fd                	addi	a7,a7,-1
    38a6:	02200813          	li	a6,34
    38aa:	02100e93          	li	t4,33
    38ae:	4f7d                	li	t5,31
    38b0:	4ff9                	li	t6,30
    38b2:	42f5                	li	t0,29
    38b4:	43f1                	li	t2,28
    38b6:	4d6d                	li	s10,27
    38b8:	4bd1                	li	s7,20
    38ba:	4b45                	li	s6,17
    38bc:	44bd                	li	s1,15
    38be:	4939                	li	s2,14
    38c0:	4a31                	li	s4,12
    38c2:	4aad                	li	s5,11
    38c4:	49b5                	li	s3,13
    38c6:	8b3d                	andi	a4,a4,15
    38c8:	0712                	slli	a4,a4,0x4
    38ca:	8f4d                	or	a4,a4,a1
    38cc:	02500593          	li	a1,37
    38d0:	0ae7a023          	sw	a4,160(a5)
    38d4:	02b68733          	mul	a4,a3,a1
    38d8:	0a07a583          	lw	a1,160(a5)
    38dc:	01c5f5b3          	and	a1,a1,t3
    38e0:	02c74733          	div	a4,a4,a2
    38e4:	8b3d                	andi	a4,a4,15
    38e6:	0722                	slli	a4,a4,0x8
    38e8:	8f4d                	or	a4,a4,a1
    38ea:	0ae7a023          	sw	a4,160(a5)
    38ee:	02a68733          	mul	a4,a3,a0
    38f2:	0a07a583          	lw	a1,160(a5)
    38f6:	f1000537          	lui	a0,0xf1000
    38fa:	157d                	addi	a0,a0,-1
    38fc:	0065f5b3          	and	a1,a1,t1
    3900:	02c74733          	div	a4,a4,a2
    3904:	8b3d                	andi	a4,a4,15
    3906:	0732                	slli	a4,a4,0xc
    3908:	8f4d                	or	a4,a4,a1
    390a:	0ae7a023          	sw	a4,160(a5)
    390e:	02868733          	mul	a4,a3,s0
    3912:	0a07a583          	lw	a1,160(a5)
    3916:	4461                	li	s0,24
    3918:	0115f5b3          	and	a1,a1,a7
    391c:	02c74733          	div	a4,a4,a2
    3920:	8b3d                	andi	a4,a4,15
    3922:	0742                	slli	a4,a4,0x10
    3924:	8f4d                	or	a4,a4,a1
    3926:	0ae7a023          	sw	a4,160(a5)
    392a:	03068733          	mul	a4,a3,a6
    392e:	0a07a583          	lw	a1,160(a5)
    3932:	ff100837          	lui	a6,0xff100
    3936:	187d                	addi	a6,a6,-1
    3938:	0105f5b3          	and	a1,a1,a6
    393c:	02c74733          	div	a4,a4,a2
    3940:	8b3d                	andi	a4,a4,15
    3942:	0752                	slli	a4,a4,0x14
    3944:	8f4d                	or	a4,a4,a1
    3946:	0ae7a023          	sw	a4,160(a5)
    394a:	03d68733          	mul	a4,a3,t4
    394e:	0a07a583          	lw	a1,160(a5)
    3952:	10000eb7          	lui	t4,0x10000
    3956:	1efd                	addi	t4,t4,-1
    3958:	8de9                	and	a1,a1,a0
    395a:	02c74733          	div	a4,a4,a2
    395e:	8b3d                	andi	a4,a4,15
    3960:	0762                	slli	a4,a4,0x18
    3962:	8f4d                	or	a4,a4,a1
    3964:	0ae7a023          	sw	a4,160(a5)
    3968:	00569713          	slli	a4,a3,0x5
    396c:	02c74733          	div	a4,a4,a2
    3970:	01c71593          	slli	a1,a4,0x1c
    3974:	0a07a703          	lw	a4,160(a5)
    3978:	01d77733          	and	a4,a4,t4
    397c:	8f4d                	or	a4,a4,a1
    397e:	0ae7a023          	sw	a4,160(a5)
    3982:	03e68733          	mul	a4,a3,t5
    3986:	4f5d                	li	t5,23
    3988:	02c74733          	div	a4,a4,a2
    398c:	00f77593          	andi	a1,a4,15
    3990:	0a47a703          	lw	a4,164(a5)
    3994:	9b41                	andi	a4,a4,-16
    3996:	8f4d                	or	a4,a4,a1
    3998:	0ae7a223          	sw	a4,164(a5)
    399c:	03f68733          	mul	a4,a3,t6
    39a0:	0a47a583          	lw	a1,164(a5)
    39a4:	4fd9                	li	t6,22
    39a6:	f0f5f593          	andi	a1,a1,-241
    39aa:	02c74733          	div	a4,a4,a2
    39ae:	8b3d                	andi	a4,a4,15
    39b0:	0712                	slli	a4,a4,0x4
    39b2:	8f4d                	or	a4,a4,a1
    39b4:	0ae7a223          	sw	a4,164(a5)
    39b8:	02568733          	mul	a4,a3,t0
    39bc:	0a47a583          	lw	a1,164(a5)
    39c0:	42d5                	li	t0,21
    39c2:	01c5f5b3          	and	a1,a1,t3
    39c6:	02c74733          	div	a4,a4,a2
    39ca:	8b3d                	andi	a4,a4,15
    39cc:	0722                	slli	a4,a4,0x8
    39ce:	8f4d                	or	a4,a4,a1
    39d0:	0ae7a223          	sw	a4,164(a5)
    39d4:	02768733          	mul	a4,a3,t2
    39d8:	0a47a583          	lw	a1,164(a5)
    39dc:	43cd                	li	t2,19
    39de:	0065f5b3          	and	a1,a1,t1
    39e2:	02c74733          	div	a4,a4,a2
    39e6:	8b3d                	andi	a4,a4,15
    39e8:	0732                	slli	a4,a4,0xc
    39ea:	8f4d                	or	a4,a4,a1
    39ec:	0ae7a223          	sw	a4,164(a5)
    39f0:	03a68733          	mul	a4,a3,s10
    39f4:	0a47a583          	lw	a1,164(a5)
    39f8:	4d49                	li	s10,18
    39fa:	0115f5b3          	and	a1,a1,a7
    39fe:	02c74733          	div	a4,a4,a2
    3a02:	8b3d                	andi	a4,a4,15
    3a04:	0742                	slli	a4,a4,0x10
    3a06:	8f4d                	or	a4,a4,a1
    3a08:	0ae7a223          	sw	a4,164(a5)
    3a0c:	4769                	li	a4,26
    3a0e:	02e68733          	mul	a4,a3,a4
    3a12:	0a47a583          	lw	a1,164(a5)
    3a16:	0105f5b3          	and	a1,a1,a6
    3a1a:	02c74733          	div	a4,a4,a2
    3a1e:	8b3d                	andi	a4,a4,15
    3a20:	0752                	slli	a4,a4,0x14
    3a22:	8f4d                	or	a4,a4,a1
    3a24:	45e5                	li	a1,25
    3a26:	0ae7a223          	sw	a4,164(a5)
    3a2a:	02b68733          	mul	a4,a3,a1
    3a2e:	0a47a583          	lw	a1,164(a5)
    3a32:	8de9                	and	a1,a1,a0
    3a34:	02c74733          	div	a4,a4,a2
    3a38:	8b3d                	andi	a4,a4,15
    3a3a:	0762                	slli	a4,a4,0x18
    3a3c:	8f4d                	or	a4,a4,a1
    3a3e:	0ae7a223          	sw	a4,164(a5)
    3a42:	02868733          	mul	a4,a3,s0
    3a46:	440d                	li	s0,3
    3a48:	02c74733          	div	a4,a4,a2
    3a4c:	01c71593          	slli	a1,a4,0x1c
    3a50:	0a47a703          	lw	a4,164(a5)
    3a54:	01d77733          	and	a4,a4,t4
    3a58:	8f4d                	or	a4,a4,a1
    3a5a:	0ae7a223          	sw	a4,164(a5)
    3a5e:	03e68733          	mul	a4,a3,t5
    3a62:	4f25                	li	t5,9
    3a64:	02c74733          	div	a4,a4,a2
    3a68:	00f77593          	andi	a1,a4,15
    3a6c:	0a87a703          	lw	a4,168(a5)
    3a70:	9b41                	andi	a4,a4,-16
    3a72:	8f4d                	or	a4,a4,a1
    3a74:	0ae7a423          	sw	a4,168(a5)
    3a78:	03f68733          	mul	a4,a3,t6
    3a7c:	0a87a583          	lw	a1,168(a5)
    3a80:	4f9d                	li	t6,7
    3a82:	f0f5f593          	andi	a1,a1,-241
    3a86:	02c74733          	div	a4,a4,a2
    3a8a:	8b3d                	andi	a4,a4,15
    3a8c:	0712                	slli	a4,a4,0x4
    3a8e:	8f4d                	or	a4,a4,a1
    3a90:	0ae7a423          	sw	a4,168(a5)
    3a94:	02568733          	mul	a4,a3,t0
    3a98:	0a87a583          	lw	a1,168(a5)
    3a9c:	4299                	li	t0,6
    3a9e:	01c5f5b3          	and	a1,a1,t3
    3aa2:	02c74733          	div	a4,a4,a2
    3aa6:	8b3d                	andi	a4,a4,15
    3aa8:	0722                	slli	a4,a4,0x8
    3aaa:	8f4d                	or	a4,a4,a1
    3aac:	0ae7a423          	sw	a4,168(a5)
    3ab0:	03768733          	mul	a4,a3,s7
    3ab4:	0a87a583          	lw	a1,168(a5)
    3ab8:	0065f5b3          	and	a1,a1,t1
    3abc:	02c74733          	div	a4,a4,a2
    3ac0:	8b3d                	andi	a4,a4,15
    3ac2:	0732                	slli	a4,a4,0xc
    3ac4:	8f4d                	or	a4,a4,a1
    3ac6:	0ae7a423          	sw	a4,168(a5)
    3aca:	02768733          	mul	a4,a3,t2
    3ace:	0a87a583          	lw	a1,168(a5)
    3ad2:	4395                	li	t2,5
    3ad4:	0115f5b3          	and	a1,a1,a7
    3ad8:	02c74733          	div	a4,a4,a2
    3adc:	8b3d                	andi	a4,a4,15
    3ade:	0742                	slli	a4,a4,0x10
    3ae0:	8f4d                	or	a4,a4,a1
    3ae2:	0ae7a423          	sw	a4,168(a5)
    3ae6:	03a68733          	mul	a4,a3,s10
    3aea:	0a87a583          	lw	a1,168(a5)
    3aee:	4d29                	li	s10,10
    3af0:	0105f5b3          	and	a1,a1,a6
    3af4:	02c74733          	div	a4,a4,a2
    3af8:	8b3d                	andi	a4,a4,15
    3afa:	0752                	slli	a4,a4,0x14
    3afc:	8f4d                	or	a4,a4,a1
    3afe:	0ae7a423          	sw	a4,168(a5)
    3b02:	03668733          	mul	a4,a3,s6
    3b06:	0a87a583          	lw	a1,168(a5)
    3b0a:	8de9                	and	a1,a1,a0
    3b0c:	02c74733          	div	a4,a4,a2
    3b10:	8b3d                	andi	a4,a4,15
    3b12:	0762                	slli	a4,a4,0x18
    3b14:	8f4d                	or	a4,a4,a1
    3b16:	00469593          	slli	a1,a3,0x4
    3b1a:	02c5c5b3          	div	a1,a1,a2
    3b1e:	0ae7a423          	sw	a4,168(a5)
    3b22:	0a87a703          	lw	a4,168(a5)
    3b26:	01d77733          	and	a4,a4,t4
    3b2a:	05f2                	slli	a1,a1,0x1c
    3b2c:	8f4d                	or	a4,a4,a1
    3b2e:	029685b3          	mul	a1,a3,s1
    3b32:	0ae7a423          	sw	a4,168(a5)
    3b36:	0ac7a703          	lw	a4,172(a5)
    3b3a:	9b41                	andi	a4,a4,-16
    3b3c:	02c5c5b3          	div	a1,a1,a2
    3b40:	89bd                	andi	a1,a1,15
    3b42:	8f4d                	or	a4,a4,a1
    3b44:	0ae7a623          	sw	a4,172(a5)
    3b48:	03268733          	mul	a4,a3,s2
    3b4c:	0ac7a583          	lw	a1,172(a5)
    3b50:	f0f5f593          	andi	a1,a1,-241
    3b54:	02c74733          	div	a4,a4,a2
    3b58:	8b3d                	andi	a4,a4,15
    3b5a:	0712                	slli	a4,a4,0x4
    3b5c:	8f4d                	or	a4,a4,a1
    3b5e:	0286c5b3          	div	a1,a3,s0
    3b62:	0ae7a623          	sw	a4,172(a5)
    3b66:	0ac7a703          	lw	a4,172(a5)
    3b6a:	01c77733          	and	a4,a4,t3
    3b6e:	89bd                	andi	a1,a1,15
    3b70:	05a2                	slli	a1,a1,0x8
    3b72:	8f4d                	or	a4,a4,a1
    3b74:	0ae7a623          	sw	a4,172(a5)
    3b78:	03468733          	mul	a4,a3,s4
    3b7c:	0ac7a583          	lw	a1,172(a5)
    3b80:	0065f5b3          	and	a1,a1,t1
    3b84:	02c74733          	div	a4,a4,a2
    3b88:	8b3d                	andi	a4,a4,15
    3b8a:	0732                	slli	a4,a4,0xc
    3b8c:	8f4d                	or	a4,a4,a1
    3b8e:	0ae7a623          	sw	a4,172(a5)
    3b92:	03568733          	mul	a4,a3,s5
    3b96:	0ac7a583          	lw	a1,172(a5)
    3b9a:	0115f5b3          	and	a1,a1,a7
    3b9e:	02c74733          	div	a4,a4,a2
    3ba2:	8b3d                	andi	a4,a4,15
    3ba4:	0742                	slli	a4,a4,0x10
    3ba6:	8f4d                	or	a4,a4,a1
    3ba8:	0ae7a623          	sw	a4,172(a5)
    3bac:	03a68733          	mul	a4,a3,s10
    3bb0:	0ac7a583          	lw	a1,172(a5)
    3bb4:	0105f5b3          	and	a1,a1,a6
    3bb8:	02c74733          	div	a4,a4,a2
    3bbc:	8b3d                	andi	a4,a4,15
    3bbe:	0752                	slli	a4,a4,0x14
    3bc0:	8f4d                	or	a4,a4,a1
    3bc2:	0ae7a623          	sw	a4,172(a5)
    3bc6:	03e68733          	mul	a4,a3,t5
    3bca:	0ac7a583          	lw	a1,172(a5)
    3bce:	8de9                	and	a1,a1,a0
    3bd0:	02c74733          	div	a4,a4,a2
    3bd4:	8b3d                	andi	a4,a4,15
    3bd6:	0762                	slli	a4,a4,0x18
    3bd8:	8f4d                	or	a4,a4,a1
    3bda:	00369593          	slli	a1,a3,0x3
    3bde:	02c5c5b3          	div	a1,a1,a2
    3be2:	0ae7a623          	sw	a4,172(a5)
    3be6:	0ac7a703          	lw	a4,172(a5)
    3bea:	01d77733          	and	a4,a4,t4
    3bee:	05f2                	slli	a1,a1,0x1c
    3bf0:	8f4d                	or	a4,a4,a1
    3bf2:	03f685b3          	mul	a1,a3,t6
    3bf6:	0ae7a623          	sw	a4,172(a5)
    3bfa:	0b07a703          	lw	a4,176(a5)
    3bfe:	9b41                	andi	a4,a4,-16
    3c00:	02c5c5b3          	div	a1,a1,a2
    3c04:	89bd                	andi	a1,a1,15
    3c06:	8f4d                	or	a4,a4,a1
    3c08:	0ae7a823          	sw	a4,176(a5)
    3c0c:	02568733          	mul	a4,a3,t0
    3c10:	0b07a583          	lw	a1,176(a5)
    3c14:	f0f5f593          	andi	a1,a1,-241
    3c18:	02c74733          	div	a4,a4,a2
    3c1c:	8b3d                	andi	a4,a4,15
    3c1e:	0712                	slli	a4,a4,0x4
    3c20:	8f4d                	or	a4,a4,a1
    3c22:	0ae7a823          	sw	a4,176(a5)
    3c26:	02768733          	mul	a4,a3,t2
    3c2a:	0b07a583          	lw	a1,176(a5)
    3c2e:	01c5f5b3          	and	a1,a1,t3
    3c32:	02c74733          	div	a4,a4,a2
    3c36:	8b3d                	andi	a4,a4,15
    3c38:	0722                	slli	a4,a4,0x8
    3c3a:	8f4d                	or	a4,a4,a1
    3c3c:	0ae7a823          	sw	a4,176(a5)
    3c40:	00269713          	slli	a4,a3,0x2
    3c44:	02c74733          	div	a4,a4,a2
    3c48:	0b07a583          	lw	a1,176(a5)
    3c4c:	0065f5b3          	and	a1,a1,t1
    3c50:	8b3d                	andi	a4,a4,15
    3c52:	0732                	slli	a4,a4,0xc
    3c54:	8f4d                	or	a4,a4,a1
    3c56:	0336c5b3          	div	a1,a3,s3
    3c5a:	0ae7a823          	sw	a4,176(a5)
    3c5e:	0b07a703          	lw	a4,176(a5)
    3c62:	01177733          	and	a4,a4,a7
    3c66:	89bd                	andi	a1,a1,15
    3c68:	05c2                	slli	a1,a1,0x10
    3c6a:	8f4d                	or	a4,a4,a1
    3c6c:	0ae7a823          	sw	a4,176(a5)
    3c70:	00169713          	slli	a4,a3,0x1
    3c74:	02c74733          	div	a4,a4,a2
    3c78:	0b07a583          	lw	a1,176(a5)
    3c7c:	0105f5b3          	and	a1,a1,a6
    3c80:	8b3d                	andi	a4,a4,15
    3c82:	0752                	slli	a4,a4,0x14
    3c84:	8f4d                	or	a4,a4,a1
    3c86:	02c6c5b3          	div	a1,a3,a2
    3c8a:	0ae7a823          	sw	a4,176(a5)
    3c8e:	0b07a703          	lw	a4,176(a5)
    3c92:	8f69                	and	a4,a4,a0
    3c94:	89bd                	andi	a1,a1,15
    3c96:	05e2                	slli	a1,a1,0x18
    3c98:	8f4d                	or	a4,a4,a1
    3c9a:	0ae7a823          	sw	a4,176(a5)
    3c9e:	0b07a703          	lw	a4,176(a5)
    3ca2:	02800593          	li	a1,40
    3ca6:	01d77733          	and	a4,a4,t4
    3caa:	0ae7a823          	sw	a4,176(a5)
    3cae:	1fffe717          	auipc	a4,0x1fffe
    3cb2:	10374703          	lbu	a4,259(a4) # 20001db1 <nCO2480>
    3cb6:	40ec0733          	sub	a4,s8,a4
    3cba:	02b74db3          	div	s11,a4,a1
    3cbe:	0b47ac83          	lw	s9,180(a5)
    3cc2:	ff0cfc93          	andi	s9,s9,-16
    3cc6:	03774bb3          	div	s7,a4,s7
    3cca:	00fdfd93          	andi	s11,s11,15
    3cce:	01bcecb3          	or	s9,s9,s11
    3cd2:	0b97aa23          	sw	s9,180(a5)
    3cd6:	0b47ac83          	lw	s9,180(a5)
    3cda:	4dcd                	li	s11,19
    3cdc:	f0fcfc93          	andi	s9,s9,-241
    3ce0:	00fbfb93          	andi	s7,s7,15
    3ce4:	0b92                	slli	s7,s7,0x4
    3ce6:	017cebb3          	or	s7,s9,s7
    3cea:	0b77aa23          	sw	s7,180(a5)
    3cee:	02870bb3          	mul	s7,a4,s0
    3cf2:	0b47ac83          	lw	s9,180(a5)
    3cf6:	01ccfcb3          	and	s9,s9,t3
    3cfa:	02bbcbb3          	div	s7,s7,a1
    3cfe:	00fbfb93          	andi	s7,s7,15
    3d02:	0ba2                	slli	s7,s7,0x8
    3d04:	017cebb3          	or	s7,s9,s7
    3d08:	03a74cb3          	div	s9,a4,s10
    3d0c:	0b77aa23          	sw	s7,180(a5)
    3d10:	0b47ab83          	lw	s7,180(a5)
    3d14:	006bfbb3          	and	s7,s7,t1
    3d18:	00fcfc93          	andi	s9,s9,15
    3d1c:	0cb2                	slli	s9,s9,0xc
    3d1e:	019bebb3          	or	s7,s7,s9
    3d22:	0b77aa23          	sw	s7,180(a5)
    3d26:	4ba1                	li	s7,8
    3d28:	03774bb3          	div	s7,a4,s7
    3d2c:	0b47ac83          	lw	s9,180(a5)
    3d30:	011cfcb3          	and	s9,s9,a7
    3d34:	00fbfb93          	andi	s7,s7,15
    3d38:	0bc2                	slli	s7,s7,0x10
    3d3a:	017cebb3          	or	s7,s9,s7
    3d3e:	0b77aa23          	sw	s7,180(a5)
    3d42:	02570bb3          	mul	s7,a4,t0
    3d46:	0b47ac83          	lw	s9,180(a5)
    3d4a:	010cfcb3          	and	s9,s9,a6
    3d4e:	02bbcbb3          	div	s7,s7,a1
    3d52:	00fbfb93          	andi	s7,s7,15
    3d56:	0bd2                	slli	s7,s7,0x14
    3d58:	017cebb3          	or	s7,s9,s7
    3d5c:	0b77aa23          	sw	s7,180(a5)
    3d60:	03f70bb3          	mul	s7,a4,t6
    3d64:	0b47ac83          	lw	s9,180(a5)
    3d68:	00acfcb3          	and	s9,s9,a0
    3d6c:	02bbcbb3          	div	s7,s7,a1
    3d70:	00fbfb93          	andi	s7,s7,15
    3d74:	0be2                	slli	s7,s7,0x18
    3d76:	017cebb3          	or	s7,s9,s7
    3d7a:	02774cb3          	div	s9,a4,t2
    3d7e:	0b77aa23          	sw	s7,180(a5)
    3d82:	0b47ab83          	lw	s7,180(a5)
    3d86:	01dbfbb3          	and	s7,s7,t4
    3d8a:	0cf2                	slli	s9,s9,0x1c
    3d8c:	019bebb3          	or	s7,s7,s9
    3d90:	03e70cb3          	mul	s9,a4,t5
    3d94:	0b77aa23          	sw	s7,180(a5)
    3d98:	0b87ab83          	lw	s7,184(a5)
    3d9c:	ff0bfb93          	andi	s7,s7,-16
    3da0:	02bcccb3          	div	s9,s9,a1
    3da4:	03570ab3          	mul	s5,a4,s5
    3da8:	00fcfc93          	andi	s9,s9,15
    3dac:	019bebb3          	or	s7,s7,s9
    3db0:	0b77ac23          	sw	s7,184(a5)
    3db4:	4b91                	li	s7,4
    3db6:	0b87ac83          	lw	s9,184(a5)
    3dba:	f0fcfc93          	andi	s9,s9,-241
    3dbe:	03774bb3          	div	s7,a4,s7
    3dc2:	03470a33          	mul	s4,a4,s4
    3dc6:	00fbfb93          	andi	s7,s7,15
    3dca:	0b92                	slli	s7,s7,0x4
    3dcc:	017cebb3          	or	s7,s9,s7
    3dd0:	0b77ac23          	sw	s7,184(a5)
    3dd4:	0b87ab83          	lw	s7,184(a5)
    3dd8:	4cd5                	li	s9,21
    3dda:	01cbfbb3          	and	s7,s7,t3
    3dde:	02bacab3          	div	s5,s5,a1
    3de2:	033709b3          	mul	s3,a4,s3
    3de6:	00fafa93          	andi	s5,s5,15
    3dea:	0aa2                	slli	s5,s5,0x8
    3dec:	015beab3          	or	s5,s7,s5
    3df0:	0b57ac23          	sw	s5,184(a5)
    3df4:	0b87aa83          	lw	s5,184(a5)
    3df8:	4bd9                	li	s7,22
    3dfa:	006afab3          	and	s5,s5,t1
    3dfe:	02ba4a33          	div	s4,s4,a1
    3e02:	03270933          	mul	s2,a4,s2
    3e06:	00fa7a13          	andi	s4,s4,15
    3e0a:	0a32                	slli	s4,s4,0xc
    3e0c:	014aea33          	or	s4,s5,s4
    3e10:	0b47ac23          	sw	s4,184(a5)
    3e14:	0b87aa03          	lw	s4,184(a5)
    3e18:	4ae1                	li	s5,24
    3e1a:	011a7a33          	and	s4,s4,a7
    3e1e:	02b9c9b3          	div	s3,s3,a1
    3e22:	029704b3          	mul	s1,a4,s1
    3e26:	00f9f993          	andi	s3,s3,15
    3e2a:	09c2                	slli	s3,s3,0x10
    3e2c:	013a69b3          	or	s3,s4,s3
    3e30:	0b37ac23          	sw	s3,184(a5)
    3e34:	0b87a983          	lw	s3,184(a5)
    3e38:	4a65                	li	s4,25
    3e3a:	0109f9b3          	and	s3,s3,a6
    3e3e:	02b94933          	div	s2,s2,a1
    3e42:	02b4c4b3          	div	s1,s1,a1
    3e46:	00f97913          	andi	s2,s2,15
    3e4a:	0952                	slli	s2,s2,0x14
    3e4c:	0129e933          	or	s2,s3,s2
    3e50:	0b27ac23          	sw	s2,184(a5)
    3e54:	0b87a903          	lw	s2,184(a5)
    3e58:	49e9                	li	s3,26
    3e5a:	00a97933          	and	s2,s2,a0
    3e5e:	03670b33          	mul	s6,a4,s6
    3e62:	88bd                	andi	s1,s1,15
    3e64:	04e2                	slli	s1,s1,0x18
    3e66:	009964b3          	or	s1,s2,s1
    3e6a:	00471913          	slli	s2,a4,0x4
    3e6e:	0a97ac23          	sw	s1,184(a5)
    3e72:	0b87a483          	lw	s1,184(a5)
    3e76:	01d4f4b3          	and	s1,s1,t4
    3e7a:	02b94933          	div	s2,s2,a1
    3e7e:	02bb4b33          	div	s6,s6,a1
    3e82:	0972                	slli	s2,s2,0x1c
    3e84:	0124e4b3          	or	s1,s1,s2
    3e88:	0a97ac23          	sw	s1,184(a5)
    3e8c:	0bc7a483          	lw	s1,188(a5)
    3e90:	98c1                	andi	s1,s1,-16
    3e92:	00fb7b13          	andi	s6,s6,15
    3e96:	0164eb33          	or	s6,s1,s6
    3e9a:	44c9                	li	s1,18
    3e9c:	029704b3          	mul	s1,a4,s1
    3ea0:	0b67ae23          	sw	s6,188(a5)
    3ea4:	0bc7a903          	lw	s2,188(a5)
    3ea8:	4b5d                	li	s6,23
    3eaa:	f0f97913          	andi	s2,s2,-241
    3eae:	02b4c4b3          	div	s1,s1,a1
    3eb2:	88bd                	andi	s1,s1,15
    3eb4:	0492                	slli	s1,s1,0x4
    3eb6:	009964b3          	or	s1,s2,s1
    3eba:	0a97ae23          	sw	s1,188(a5)
    3ebe:	03b704b3          	mul	s1,a4,s11
    3ec2:	0bc7a903          	lw	s2,188(a5)
    3ec6:	4df5                	li	s11,29
    3ec8:	01c97933          	and	s2,s2,t3
    3ecc:	02b4c4b3          	div	s1,s1,a1
    3ed0:	88bd                	andi	s1,s1,15
    3ed2:	04a2                	slli	s1,s1,0x8
    3ed4:	009964b3          	or	s1,s2,s1
    3ed8:	0a97ae23          	sw	s1,188(a5)
    3edc:	4489                	li	s1,2
    3ede:	029744b3          	div	s1,a4,s1
    3ee2:	0bc7a903          	lw	s2,188(a5)
    3ee6:	00697933          	and	s2,s2,t1
    3eea:	88bd                	andi	s1,s1,15
    3eec:	04b2                	slli	s1,s1,0xc
    3eee:	009964b3          	or	s1,s2,s1
    3ef2:	0a97ae23          	sw	s1,188(a5)
    3ef6:	039704b3          	mul	s1,a4,s9
    3efa:	0bc7a903          	lw	s2,188(a5)
    3efe:	4cf9                	li	s9,30
    3f00:	01197933          	and	s2,s2,a7
    3f04:	02b4c4b3          	div	s1,s1,a1
    3f08:	88bd                	andi	s1,s1,15
    3f0a:	04c2                	slli	s1,s1,0x10
    3f0c:	009964b3          	or	s1,s2,s1
    3f10:	0a97ae23          	sw	s1,188(a5)
    3f14:	037704b3          	mul	s1,a4,s7
    3f18:	0bc7a903          	lw	s2,188(a5)
    3f1c:	4bfd                	li	s7,31
    3f1e:	01097933          	and	s2,s2,a6
    3f22:	02b4c4b3          	div	s1,s1,a1
    3f26:	88bd                	andi	s1,s1,15
    3f28:	04d2                	slli	s1,s1,0x14
    3f2a:	009964b3          	or	s1,s2,s1
    3f2e:	0a97ae23          	sw	s1,188(a5)
    3f32:	036704b3          	mul	s1,a4,s6
    3f36:	0bc7a903          	lw	s2,188(a5)
    3f3a:	02100b13          	li	s6,33
    3f3e:	00a97933          	and	s2,s2,a0
    3f42:	02b4c4b3          	div	s1,s1,a1
    3f46:	88bd                	andi	s1,s1,15
    3f48:	04e2                	slli	s1,s1,0x18
    3f4a:	009964b3          	or	s1,s2,s1
    3f4e:	0a97ae23          	sw	s1,188(a5)
    3f52:	035704b3          	mul	s1,a4,s5
    3f56:	0bc7a903          	lw	s2,188(a5)
    3f5a:	02200a93          	li	s5,34
    3f5e:	01d97933          	and	s2,s2,t4
    3f62:	02b4c4b3          	div	s1,s1,a1
    3f66:	04f2                	slli	s1,s1,0x1c
    3f68:	009964b3          	or	s1,s2,s1
    3f6c:	0a97ae23          	sw	s1,188(a5)
    3f70:	034704b3          	mul	s1,a4,s4
    3f74:	0c07a903          	lw	s2,192(a5)
    3f78:	02300a13          	li	s4,35
    3f7c:	ff097913          	andi	s2,s2,-16
    3f80:	02b4c4b3          	div	s1,s1,a1
    3f84:	88bd                	andi	s1,s1,15
    3f86:	009964b3          	or	s1,s2,s1
    3f8a:	0c97a023          	sw	s1,192(a5)
    3f8e:	033704b3          	mul	s1,a4,s3
    3f92:	0c07a903          	lw	s2,192(a5)
    3f96:	02400993          	li	s3,36
    3f9a:	f0f97913          	andi	s2,s2,-241
    3f9e:	02b4c4b3          	div	s1,s1,a1
    3fa2:	88bd                	andi	s1,s1,15
    3fa4:	0492                	slli	s1,s1,0x4
    3fa6:	009964b3          	or	s1,s2,s1
    3faa:	496d                	li	s2,27
    3fac:	0c97a023          	sw	s1,192(a5)
    3fb0:	032704b3          	mul	s1,a4,s2
    3fb4:	0c07a903          	lw	s2,192(a5)
    3fb8:	01c97933          	and	s2,s2,t3
    3fbc:	02b4c4b3          	div	s1,s1,a1
    3fc0:	88bd                	andi	s1,s1,15
    3fc2:	04a2                	slli	s1,s1,0x8
    3fc4:	009964b3          	or	s1,s2,s1
    3fc8:	0c97a023          	sw	s1,192(a5)
    3fcc:	44f1                	li	s1,28
    3fce:	029704b3          	mul	s1,a4,s1
    3fd2:	0c07a903          	lw	s2,192(a5)
    3fd6:	00697933          	and	s2,s2,t1
    3fda:	02b4c4b3          	div	s1,s1,a1
    3fde:	88bd                	andi	s1,s1,15
    3fe0:	04b2                	slli	s1,s1,0xc
    3fe2:	009964b3          	or	s1,s2,s1
    3fe6:	0c97a023          	sw	s1,192(a5)
    3fea:	03b704b3          	mul	s1,a4,s11
    3fee:	0c07a903          	lw	s2,192(a5)
    3ff2:	01197933          	and	s2,s2,a7
    3ff6:	02b4c4b3          	div	s1,s1,a1
    3ffa:	88bd                	andi	s1,s1,15
    3ffc:	04c2                	slli	s1,s1,0x10
    3ffe:	009964b3          	or	s1,s2,s1
    4002:	0c97a023          	sw	s1,192(a5)
    4006:	039704b3          	mul	s1,a4,s9
    400a:	0c07a903          	lw	s2,192(a5)
    400e:	01097933          	and	s2,s2,a6
    4012:	02b4c4b3          	div	s1,s1,a1
    4016:	88bd                	andi	s1,s1,15
    4018:	04d2                	slli	s1,s1,0x14
    401a:	009964b3          	or	s1,s2,s1
    401e:	0c97a023          	sw	s1,192(a5)
    4022:	037704b3          	mul	s1,a4,s7
    4026:	0c07a903          	lw	s2,192(a5)
    402a:	00a97933          	and	s2,s2,a0
    402e:	02b4c4b3          	div	s1,s1,a1
    4032:	88bd                	andi	s1,s1,15
    4034:	04e2                	slli	s1,s1,0x18
    4036:	009964b3          	or	s1,s2,s1
    403a:	0c97a023          	sw	s1,192(a5)
    403e:	00571493          	slli	s1,a4,0x5
    4042:	02b4c4b3          	div	s1,s1,a1
    4046:	01c49913          	slli	s2,s1,0x1c
    404a:	0c07a483          	lw	s1,192(a5)
    404e:	02c70633          	mul	a2,a4,a2
    4052:	01d4f4b3          	and	s1,s1,t4
    4056:	0124e4b3          	or	s1,s1,s2
    405a:	0c97a023          	sw	s1,192(a5)
    405e:	0c47a903          	lw	s2,196(a5)
    4062:	ff097913          	andi	s2,s2,-16
    4066:	036704b3          	mul	s1,a4,s6
    406a:	02b4c4b3          	div	s1,s1,a1
    406e:	88bd                	andi	s1,s1,15
    4070:	009964b3          	or	s1,s2,s1
    4074:	0c97a223          	sw	s1,196(a5)
    4078:	035704b3          	mul	s1,a4,s5
    407c:	0c47a903          	lw	s2,196(a5)
    4080:	f0f97913          	andi	s2,s2,-241
    4084:	02b4c4b3          	div	s1,s1,a1
    4088:	88bd                	andi	s1,s1,15
    408a:	0492                	slli	s1,s1,0x4
    408c:	009964b3          	or	s1,s2,s1
    4090:	0c97a223          	sw	s1,196(a5)
    4094:	034704b3          	mul	s1,a4,s4
    4098:	0c47a903          	lw	s2,196(a5)
    409c:	01c97933          	and	s2,s2,t3
    40a0:	02b4c4b3          	div	s1,s1,a1
    40a4:	88bd                	andi	s1,s1,15
    40a6:	04a2                	slli	s1,s1,0x8
    40a8:	009964b3          	or	s1,s2,s1
    40ac:	0c97a223          	sw	s1,196(a5)
    40b0:	033704b3          	mul	s1,a4,s3
    40b4:	0c47a903          	lw	s2,196(a5)
    40b8:	00697933          	and	s2,s2,t1
    40bc:	02b4c4b3          	div	s1,s1,a1
    40c0:	88bd                	andi	s1,s1,15
    40c2:	04b2                	slli	s1,s1,0xc
    40c4:	009964b3          	or	s1,s2,s1
    40c8:	02500913          	li	s2,37
    40cc:	0c97a223          	sw	s1,196(a5)
    40d0:	032704b3          	mul	s1,a4,s2
    40d4:	0c47a903          	lw	s2,196(a5)
    40d8:	01197933          	and	s2,s2,a7
    40dc:	02b4c4b3          	div	s1,s1,a1
    40e0:	88bd                	andi	s1,s1,15
    40e2:	04c2                	slli	s1,s1,0x10
    40e4:	009964b3          	or	s1,s2,s1
    40e8:	0c97a223          	sw	s1,196(a5)
    40ec:	02600493          	li	s1,38
    40f0:	029704b3          	mul	s1,a4,s1
    40f4:	0c47a903          	lw	s2,196(a5)
    40f8:	01097933          	and	s2,s2,a6
    40fc:	02b4c4b3          	div	s1,s1,a1
    4100:	02b64633          	div	a2,a2,a1
    4104:	88bd                	andi	s1,s1,15
    4106:	04d2                	slli	s1,s1,0x14
    4108:	009964b3          	or	s1,s2,s1
    410c:	0c97a223          	sw	s1,196(a5)
    4110:	0c47a483          	lw	s1,196(a5)
    4114:	8ce9                	and	s1,s1,a0
    4116:	8a3d                	andi	a2,a2,15
    4118:	0662                	slli	a2,a2,0x18
    411a:	8e45                	or	a2,a2,s1
    411c:	0cc7a223          	sw	a2,196(a5)
    4120:	0c47a603          	lw	a2,196(a5)
    4124:	01c71493          	slli	s1,a4,0x1c
    4128:	01d67633          	and	a2,a2,t4
    412c:	8e45                	or	a2,a2,s1
    412e:	0cc7a223          	sw	a2,196(a5)
    4132:	02900613          	li	a2,41
    4136:	02c70633          	mul	a2,a4,a2
    413a:	0c87a483          	lw	s1,200(a5)
    413e:	98c1                	andi	s1,s1,-16
    4140:	02b64633          	div	a2,a2,a1
    4144:	8a3d                	andi	a2,a2,15
    4146:	8e45                	or	a2,a2,s1
    4148:	0cc7a423          	sw	a2,200(a5)
    414c:	02a00613          	li	a2,42
    4150:	02c70633          	mul	a2,a4,a2
    4154:	02b645b3          	div	a1,a2,a1
    4158:	0c87a603          	lw	a2,200(a5)
    415c:	f0f67613          	andi	a2,a2,-241
    4160:	89bd                	andi	a1,a1,15
    4162:	0592                	slli	a1,a1,0x4
    4164:	8dd1                	or	a1,a1,a2
    4166:	0cb7a423          	sw	a1,200(a5)
    416a:	1fffe597          	auipc	a1,0x1fffe
    416e:	c365c583          	lbu	a1,-970(a1) # 20001da0 <nGA2440>
    4172:	1fffe617          	auipc	a2,0x1fffe
    4176:	c3664603          	lbu	a2,-970(a2) # 20001da8 <nGA2480>
    417a:	40c58633          	sub	a2,a1,a2
    417e:	03a604b3          	mul	s1,a2,s10
    4182:	0c87a903          	lw	s2,200(a5)
    4186:	01c97933          	and	s2,s2,t3
    418a:	02e4c4b3          	div	s1,s1,a4
    418e:	0084e493          	ori	s1,s1,8
    4192:	88bd                	andi	s1,s1,15
    4194:	04a2                	slli	s1,s1,0x8
    4196:	009964b3          	or	s1,s2,s1
    419a:	0c97a423          	sw	s1,200(a5)
    419e:	03e604b3          	mul	s1,a2,t5
    41a2:	0c87a903          	lw	s2,200(a5)
    41a6:	00697933          	and	s2,s2,t1
    41aa:	02e4c4b3          	div	s1,s1,a4
    41ae:	0084e493          	ori	s1,s1,8
    41b2:	88bd                	andi	s1,s1,15
    41b4:	04b2                	slli	s1,s1,0xc
    41b6:	009964b3          	or	s1,s2,s1
    41ba:	0c97a423          	sw	s1,200(a5)
    41be:	00361493          	slli	s1,a2,0x3
    41c2:	02e4c4b3          	div	s1,s1,a4
    41c6:	0c87a903          	lw	s2,200(a5)
    41ca:	01197933          	and	s2,s2,a7
    41ce:	0084e493          	ori	s1,s1,8
    41d2:	88bd                	andi	s1,s1,15
    41d4:	04c2                	slli	s1,s1,0x10
    41d6:	009964b3          	or	s1,s2,s1
    41da:	0c97a423          	sw	s1,200(a5)
    41de:	03f604b3          	mul	s1,a2,t6
    41e2:	0c87a903          	lw	s2,200(a5)
    41e6:	01097933          	and	s2,s2,a6
    41ea:	02e4c4b3          	div	s1,s1,a4
    41ee:	0084e493          	ori	s1,s1,8
    41f2:	88bd                	andi	s1,s1,15
    41f4:	04d2                	slli	s1,s1,0x14
    41f6:	009964b3          	or	s1,s2,s1
    41fa:	0c97a423          	sw	s1,200(a5)
    41fe:	025604b3          	mul	s1,a2,t0
    4202:	0c87a903          	lw	s2,200(a5)
    4206:	00a97933          	and	s2,s2,a0
    420a:	02e4c4b3          	div	s1,s1,a4
    420e:	0084e493          	ori	s1,s1,8
    4212:	88bd                	andi	s1,s1,15
    4214:	04e2                	slli	s1,s1,0x18
    4216:	009964b3          	or	s1,s2,s1
    421a:	0c97a423          	sw	s1,200(a5)
    421e:	027604b3          	mul	s1,a2,t2
    4222:	0c87a903          	lw	s2,200(a5)
    4226:	01d97933          	and	s2,s2,t4
    422a:	02e4c4b3          	div	s1,s1,a4
    422e:	0084e493          	ori	s1,s1,8
    4232:	04f2                	slli	s1,s1,0x1c
    4234:	009964b3          	or	s1,s2,s1
    4238:	0c97a423          	sw	s1,200(a5)
    423c:	00261493          	slli	s1,a2,0x2
    4240:	02e4c4b3          	div	s1,s1,a4
    4244:	0cc7a903          	lw	s2,204(a5)
    4248:	ff097913          	andi	s2,s2,-16
    424c:	0084e493          	ori	s1,s1,8
    4250:	88bd                	andi	s1,s1,15
    4252:	009964b3          	or	s1,s2,s1
    4256:	0c97a623          	sw	s1,204(a5)
    425a:	028604b3          	mul	s1,a2,s0
    425e:	0cc7a903          	lw	s2,204(a5)
    4262:	f0f97913          	andi	s2,s2,-241
    4266:	02e4c4b3          	div	s1,s1,a4
    426a:	0084e493          	ori	s1,s1,8
    426e:	88bd                	andi	s1,s1,15
    4270:	0492                	slli	s1,s1,0x4
    4272:	009964b3          	or	s1,s2,s1
    4276:	0c97a623          	sw	s1,204(a5)
    427a:	00161493          	slli	s1,a2,0x1
    427e:	02e4c4b3          	div	s1,s1,a4
    4282:	0cc7a903          	lw	s2,204(a5)
    4286:	01c97933          	and	s2,s2,t3
    428a:	02e64733          	div	a4,a2,a4
    428e:	0084e493          	ori	s1,s1,8
    4292:	88bd                	andi	s1,s1,15
    4294:	04a2                	slli	s1,s1,0x8
    4296:	009964b3          	or	s1,s2,s1
    429a:	0c97a623          	sw	s1,204(a5)
    429e:	0cc7a603          	lw	a2,204(a5)
    42a2:	00667633          	and	a2,a2,t1
    42a6:	00876713          	ori	a4,a4,8
    42aa:	8b3d                	andi	a4,a4,15
    42ac:	0732                	slli	a4,a4,0xc
    42ae:	8f51                	or	a4,a4,a2
    42b0:	0ce7a623          	sw	a4,204(a5)
    42b4:	0cc7a703          	lw	a4,204(a5)
    42b8:	01177733          	and	a4,a4,a7
    42bc:	0ce7a623          	sw	a4,204(a5)
    42c0:	81a1c703          	lbu	a4,-2022(gp) # 2000008a <nGA2401>
    42c4:	8f0d                	sub	a4,a4,a1
    42c6:	02d74633          	div	a2,a4,a3
    42ca:	07f5f593          	andi	a1,a1,127
    42ce:	05e2                	slli	a1,a1,0x18
    42d0:	8a3d                	andi	a2,a2,15
    42d2:	01461493          	slli	s1,a2,0x14
    42d6:	0cc7a603          	lw	a2,204(a5)
    42da:	02870433          	mul	s0,a4,s0
    42de:	01067633          	and	a2,a2,a6
    42e2:	8e45                	or	a2,a2,s1
    42e4:	0cc7a623          	sw	a2,204(a5)
    42e8:	00171613          	slli	a2,a4,0x1
    42ec:	0cc7a483          	lw	s1,204(a5)
    42f0:	8ce9                	and	s1,s1,a0
    42f2:	02d64633          	div	a2,a2,a3
    42f6:	8a3d                	andi	a2,a2,15
    42f8:	0662                	slli	a2,a2,0x18
    42fa:	8e45                	or	a2,a2,s1
    42fc:	0cc7a623          	sw	a2,204(a5)
    4300:	0cc7a603          	lw	a2,204(a5)
    4304:	02d44433          	div	s0,s0,a3
    4308:	01d67eb3          	and	t4,a2,t4
    430c:	00271613          	slli	a2,a4,0x2
    4310:	027703b3          	mul	t2,a4,t2
    4314:	0472                	slli	s0,s0,0x1c
    4316:	008ee433          	or	s0,t4,s0
    431a:	0c87a623          	sw	s0,204(a5)
    431e:	02d64633          	div	a2,a2,a3
    4322:	025702b3          	mul	t0,a4,t0
    4326:	00f67e93          	andi	t4,a2,15
    432a:	0d07a603          	lw	a2,208(a5)
    432e:	9a41                	andi	a2,a2,-16
    4330:	01d66633          	or	a2,a2,t4
    4334:	0cc7a823          	sw	a2,208(a5)
    4338:	0d07a603          	lw	a2,208(a5)
    433c:	02d3c3b3          	div	t2,t2,a3
    4340:	f0f67613          	andi	a2,a2,-241
    4344:	02d2c2b3          	div	t0,t0,a3
    4348:	00f3f393          	andi	t2,t2,15
    434c:	0392                	slli	t2,t2,0x4
    434e:	007663b3          	or	t2,a2,t2
    4352:	0c77a823          	sw	t2,208(a5)
    4356:	0d07a603          	lw	a2,208(a5)
    435a:	01c67e33          	and	t3,a2,t3
    435e:	03f70fb3          	mul	t6,a4,t6
    4362:	00f2f293          	andi	t0,t0,15
    4366:	02a2                	slli	t0,t0,0x8
    4368:	005e62b3          	or	t0,t3,t0
    436c:	0c57a823          	sw	t0,208(a5)
    4370:	0d07a603          	lw	a2,208(a5)
    4374:	00667333          	and	t1,a2,t1
    4378:	00371613          	slli	a2,a4,0x3
    437c:	02dfcfb3          	div	t6,t6,a3
    4380:	03e70f33          	mul	t5,a4,t5
    4384:	00ffff93          	andi	t6,t6,15
    4388:	0fb2                	slli	t6,t6,0xc
    438a:	01f36fb3          	or	t6,t1,t6
    438e:	0df7a823          	sw	t6,208(a5)
    4392:	0d07a303          	lw	t1,208(a5)
    4396:	011378b3          	and	a7,t1,a7
    439a:	02d64633          	div	a2,a2,a3
    439e:	03a70d33          	mul	s10,a4,s10
    43a2:	8a3d                	andi	a2,a2,15
    43a4:	0642                	slli	a2,a2,0x10
    43a6:	00c8e633          	or	a2,a7,a2
    43aa:	0cc7a823          	sw	a2,208(a5)
    43ae:	0d07a603          	lw	a2,208(a5)
    43b2:	01067833          	and	a6,a2,a6
    43b6:	02df4f33          	div	t5,t5,a3
    43ba:	02dd46b3          	div	a3,s10,a3
    43be:	00ff7f13          	andi	t5,t5,15
    43c2:	0f52                	slli	t5,t5,0x14
    43c4:	01e86f33          	or	t5,a6,t5
    43c8:	0de7a823          	sw	t5,208(a5)
    43cc:	0d07a703          	lw	a4,208(a5)
    43d0:	8d79                	and	a0,a0,a4
    43d2:	8abd                	andi	a3,a3,15
    43d4:	06e2                	slli	a3,a3,0x18
    43d6:	8ec9                	or	a3,a3,a0
    43d8:	0cd7a823          	sw	a3,208(a5)
    43dc:	43d8                	lw	a4,4(a5)
    43de:	6685                	lui	a3,0x1
    43e0:	9b3d                	andi	a4,a4,-17
    43e2:	c3d8                	sw	a4,4(a5)
    43e4:	43d8                	lw	a4,4(a5)
    43e6:	9b79                	andi	a4,a4,-2
    43e8:	c3d8                	sw	a4,4(a5)
    43ea:	5798                	lw	a4,40(a5)
    43ec:	8f55                	or	a4,a4,a3
    43ee:	d798                	sw	a4,40(a5)
    43f0:	57d8                	lw	a4,44(a5)
    43f2:	810006b7          	lui	a3,0x81000
    43f6:	16fd                	addi	a3,a3,-1
    43f8:	01076713          	ori	a4,a4,16
    43fc:	d7d8                	sw	a4,44(a5)
    43fe:	03fc7713          	andi	a4,s8,63
    4402:	0387ac03          	lw	s8,56(a5)
    4406:	fc0c7c13          	andi	s8,s8,-64
    440a:	00ec6c33          	or	s8,s8,a4
    440e:	0387ac23          	sw	s8,56(a5)
    4412:	5f98                	lw	a4,56(a5)
    4414:	8f75                	and	a4,a4,a3
    4416:	8dd9                	or	a1,a1,a4
    4418:	df8c                	sw	a1,56(a5)
    441a:	5462                	lw	s0,56(sp)
    441c:	50f2                	lw	ra,60(sp)
    441e:	54d2                	lw	s1,52(sp)
    4420:	5942                	lw	s2,48(sp)
    4422:	59b2                	lw	s3,44(sp)
    4424:	5a22                	lw	s4,40(sp)
    4426:	5a92                	lw	s5,36(sp)
    4428:	5b02                	lw	s6,32(sp)
    442a:	4bf2                	lw	s7,28(sp)
    442c:	4c62                	lw	s8,24(sp)
    442e:	4cd2                	lw	s9,20(sp)
    4430:	4d42                	lw	s10,16(sp)
    4432:	4db2                	lw	s11,12(sp)
    4434:	6121                	addi	sp,sp,64
    4436:	8082                	ret
    4438:	1fffe797          	auipc	a5,0x1fffe
    443c:	9607a623          	sw	zero,-1684(a5) # 20001da4 <ftuneFlag>
    4440:	c14ff06f          	j	3854 <RFEND_TXCtune+0x130>

00004444 <RFEND_TXFtune>:
    4444:	1fffe797          	auipc	a5,0x1fffe
    4448:	96878793          	addi	a5,a5,-1688 # 20001dac <gptrRFENDReg>
    444c:	4398                	lw	a4,0(a5)
    444e:	435c                	lw	a5,4(a4)
    4450:	1007e793          	ori	a5,a5,256
    4454:	c35c                	sw	a5,4(a4)
    4456:	8082                	ret

00004458 <tmos_memory_getlen>:
    4458:	1fffe797          	auipc	a5,0x1fffe
    445c:	96478793          	addi	a5,a5,-1692 # 20001dbc <MemCtlStart>
    4460:	1fffe717          	auipc	a4,0x1fffe
    4464:	95470713          	addi	a4,a4,-1708 # 20001db4 <MemCtlEnd>
    4468:	439c                	lw	a5,0(a5)
    446a:	4318                	lw	a4,0(a4)
    446c:	4501                	li	a0,0
    446e:	00f71363          	bne	a4,a5,4474 <tmos_memory_getlen+0x1c>
    4472:	8082                	ret
    4474:	23f6                	lhu	a3,6(a5)
    4476:	e299                	bnez	a3,447c <tmos_memory_getlen+0x24>
    4478:	23d6                	lhu	a3,4(a5)
    447a:	9536                	add	a0,a0,a3
    447c:	439c                	lw	a5,0(a5)
    447e:	bfc5                	j	446e <tmos_memory_getlen+0x16>

00004480 <tmos_memory_init>:
    4480:	1fffe797          	auipc	a5,0x1fffe
    4484:	86c78793          	addi	a5,a5,-1940 # 20001cec <ble>
    4488:	438c                	lw	a1,0(a5)
    448a:	1fffe717          	auipc	a4,0x1fffe
    448e:	86675703          	lhu	a4,-1946(a4) # 20001cf0 <ble+0x4>
    4492:	1141                	addi	sp,sp,-16
    4494:	22058613          	addi	a2,a1,544
    4498:	1fffe797          	auipc	a5,0x1fffe
    449c:	92c7a223          	sw	a2,-1756(a5) # 20001dbc <MemCtlStart>
    44a0:	ff858793          	addi	a5,a1,-8
    44a4:	97ba                	add	a5,a5,a4
    44a6:	6505                	lui	a0,0x1
    44a8:	1fffe697          	auipc	a3,0x1fffe
    44ac:	90f6a623          	sw	a5,-1780(a3) # 20001db4 <MemCtlEnd>
    44b0:	c606                	sw	ra,12(sp)
    44b2:	051d                	addi	a0,a0,7
    44b4:	00375693          	srli	a3,a4,0x3
    44b8:	00e57463          	bgeu	a0,a4,44c0 <tmos_memory_init+0x40>
    44bc:	20000693          	li	a3,512
    44c0:	00d60733          	add	a4,a2,a3
    44c4:	1fffe517          	auipc	a0,0x1fffe
    44c8:	8ee52a23          	sw	a4,-1804(a0) # 20001db8 <MemCtlPartition>
    44cc:	22e5a023          	sw	a4,544(a1)
    44d0:	16e1                	addi	a3,a3,-8
    44d2:	a256                	sh	a3,4(a2)
    44d4:	00061323          	sh	zero,6(a2)
    44d8:	c31c                	sw	a5,0(a4)
    44da:	8f99                	sub	a5,a5,a4
    44dc:	17e1                	addi	a5,a5,-8
    44de:	a35e                	sh	a5,4(a4)
    44e0:	00071323          	sh	zero,6(a4)
    44e4:	3f95                	jal	4458 <tmos_memory_getlen>
    44e6:	40b2                	lw	ra,12(sp)
    44e8:	1fffd797          	auipc	a5,0x1fffd
    44ec:	7aa79b23          	sh	a0,1974(a5) # 20001c9e <gTmosPara+0x6>
    44f0:	0141                	addi	sp,sp,16
    44f2:	8082                	ret

000044f4 <LL_InitiateSetRF>:
    44f4:	1141                	addi	sp,sp,-16
    44f6:	1fffe797          	auipc	a5,0x1fffe
    44fa:	8ca78793          	addi	a5,a5,-1846 # 20001dc0 <gBleLlPara>
    44fe:	c226                	sw	s1,4(sp)
    4500:	1fffe497          	auipc	s1,0x1fffe
    4504:	86048493          	addi	s1,s1,-1952 # 20001d60 <gptrLLEReg>
    4508:	c422                	sw	s0,8(sp)
    450a:	0847a403          	lw	s0,132(a5)
    450e:	409c                	lw	a5,0(s1)
    4510:	c606                	sw	ra,12(sp)
    4512:	c04a                	sw	s2,0(sp)
    4514:	4398                	lw	a4,0(a5)
    4516:	8b0d                	andi	a4,a4,3
    4518:	c305                	beqz	a4,4538 <LL_InitiateSetRF+0x44>
    451a:	4bb8                	lw	a4,80(a5)
    451c:	9b61                	andi	a4,a4,-8
    451e:	cbb8                	sw	a4,80(a5)
    4520:	4398                	lw	a4,0(a5)
    4522:	00876713          	ori	a4,a4,8
    4526:	c398                	sw	a4,0(a5)
    4528:	439c                	lw	a5,0(a5)
    452a:	838d                	srli	a5,a5,0x3
    452c:	8b85                	andi	a5,a5,1
    452e:	c789                	beqz	a5,4538 <LL_InitiateSetRF+0x44>
    4530:	0001                	nop
    4532:	0001                	nop
    4534:	0001                	nop
    4536:	0001                	nop
    4538:	1fffe797          	auipc	a5,0x1fffe
    453c:	80478793          	addi	a5,a5,-2044 # 20001d3c <gptrBBReg>
    4540:	4394                	lw	a3,0(a5)
    4542:	8e89c737          	lui	a4,0x8e89c
    4546:	ed670713          	addi	a4,a4,-298 # 8e89bed6 <_eusrstack+0x6e88bed6>
    454a:	c698                	sw	a4,8(a3)
    454c:	00555737          	lui	a4,0x555
    4550:	55570713          	addi	a4,a4,1365 # 555555 <_data_lma+0x54f651>
    4554:	c2d8                	sw	a4,4(a3)
    4556:	03a44703          	lbu	a4,58(s0)
    455a:	0ff00693          	li	a3,255
    455e:	893e                	mv	s2,a5
    4560:	00d70763          	beq	a4,a3,456e <LL_InitiateSetRF+0x7a>
    4564:	57fd                	li	a5,-1
    4566:	02e40ca3          	sb	a4,57(s0)
    456a:	02f40d23          	sb	a5,58(s0)
    456e:	03944503          	lbu	a0,57(s0)
    4572:	4789                	li	a5,2
    4574:	00f50663          	beq	a0,a5,4580 <LL_InitiateSetRF+0x8c>
    4578:	4785                	li	a5,1
    457a:	02f40ca3          	sb	a5,57(s0)
    457e:	4501                	li	a0,0
    4580:	4098                	lw	a4,0(s1)
    4582:	435c                	lw	a5,4(a4)
    4584:	0017e793          	ori	a5,a5,1
    4588:	c35c                	sw	a5,4(a4)
    458a:	fb200793          	li	a5,-78
    458e:	a07c                	sb	a5,6(s0)
    4590:	1fffd797          	auipc	a5,0x1fffd
    4594:	7bd7c783          	lbu	a5,1981(a5) # 20001d4d <gBleIPPara+0x9>
    4598:	cf81                	beqz	a5,45b0 <LL_InitiateSetRF+0xbc>
    459a:	1fffd717          	auipc	a4,0x1fffd
    459e:	7b274703          	lbu	a4,1970(a4) # 20001d4c <gBleIPPara+0x8>
    45a2:	478d                	li	a5,3
    45a4:	00f71663          	bne	a4,a5,45b0 <LL_InitiateSetRF+0xbc>
    45a8:	1fffd797          	auipc	a5,0x1fffd
    45ac:	7a0782a3          	sb	zero,1957(a5) # 20001d4d <gBleIPPara+0x9>
    45b0:	1fffd717          	auipc	a4,0x1fffd
    45b4:	79b74703          	lbu	a4,1947(a4) # 20001d4b <gBleIPPara+0x7>
    45b8:	479d                	li	a5,7
    45ba:	00f71863          	bne	a4,a5,45ca <LL_InitiateSetRF+0xd6>
    45be:	10700793          	li	a5,263
    45c2:	1fffd717          	auipc	a4,0x1fffd
    45c6:	78f71523          	sh	a5,1930(a4) # 20001d4c <gBleIPPara+0x8>
    45ca:	4799                	li	a5,6
    45cc:	1fffd717          	auipc	a4,0x1fffd
    45d0:	76f70fa3          	sb	a5,1919(a4) # 20001d4b <gBleIPPara+0x7>
    45d4:	4601                	li	a2,0
    45d6:	1fffd797          	auipc	a5,0x1fffd
    45da:	76078723          	sb	zero,1902(a5) # 20001d44 <gBleIPPara>
    45de:	02500593          	li	a1,37
    45e2:	1fffd797          	auipc	a5,0x1fffd
    45e6:	76078323          	sb	zero,1894(a5) # 20001d48 <gBleIPPara+0x4>
    45ea:	867fe0ef          	jal	ra,2e50 <BLE_SetPHYRxMode>
    45ee:	4090                	lw	a2,0(s1)
    45f0:	1fffd797          	auipc	a5,0x1fffd
    45f4:	74078ca3          	sb	zero,1881(a5) # 20001d49 <gBleIPPara+0x5>
    45f8:	1fffd797          	auipc	a5,0x1fffd
    45fc:	740786a3          	sb	zero,1869(a5) # 20001d45 <gBleIPPara+0x1>
    4600:	4785                	li	a5,1
    4602:	c21c                	sw	a5,0(a2)
    4604:	00092783          	lw	a5,0(s2)
    4608:	003305b7          	lui	a1,0x330
    460c:	4398                	lw	a4,0(a5)
    460e:	e7f77713          	andi	a4,a4,-385
    4612:	c398                	sw	a4,0(a5)
    4614:	4398                	lw	a4,0(a5)
    4616:	e7f77713          	andi	a4,a4,-385
    461a:	10076713          	ori	a4,a4,256
    461e:	c398                	sw	a4,0(a5)
    4620:	1fffd717          	auipc	a4,0x1fffd
    4624:	78c70713          	addi	a4,a4,1932 # 20001dac <gptrRFENDReg>
    4628:	4318                	lw	a4,0(a4)
    462a:	4714                	lw	a3,8(a4)
    462c:	8ecd                	or	a3,a3,a1
    462e:	c714                	sw	a3,8(a4)
    4630:	05900693          	li	a3,89
    4634:	ca34                	sw	a3,80(a2)
    4636:	5754                	lw	a3,44(a4)
    4638:	9af5                	andi	a3,a3,-3
    463a:	d754                	sw	a3,44(a4)
    463c:	3058                	lbu	a4,5(s0)
    463e:	07f77693          	andi	a3,a4,127
    4642:	4398                	lw	a4,0(a5)
    4644:	f8077713          	andi	a4,a4,-128
    4648:	8f55                	or	a4,a4,a3
    464a:	c398                	sw	a4,0(a5)
    464c:	40b2                	lw	ra,12(sp)
    464e:	4422                	lw	s0,8(sp)
    4650:	4492                	lw	s1,4(sp)
    4652:	4902                	lw	s2,0(sp)
    4654:	0141                	addi	sp,sp,16
    4656:	8082                	ret

00004658 <__udivdi3>:
    4658:	87b6                	mv	a5,a3
    465a:	88b2                	mv	a7,a2
    465c:	832a                	mv	t1,a0
    465e:	882e                	mv	a6,a1
    4660:	14069b63          	bnez	a3,47b6 <__udivdi3+0x15e>
    4664:	0ac5f863          	bgeu	a1,a2,4714 <__udivdi3+0xbc>
    4668:	6741                	lui	a4,0x10
    466a:	1ae66b63          	bltu	a2,a4,4820 <__udivdi3+0x1c8>
    466e:	010007b7          	lui	a5,0x1000
    4672:	34f66063          	bltu	a2,a5,49b2 <__udivdi3+0x35a>
    4676:	01865693          	srli	a3,a2,0x18
    467a:	47e1                	li	a5,24
    467c:	00001717          	auipc	a4,0x1
    4680:	6e870713          	addi	a4,a4,1768 # 5d64 <__clz_tab>
    4684:	9736                	add	a4,a4,a3
    4686:	2318                	lbu	a4,0(a4)
    4688:	97ba                	add	a5,a5,a4
    468a:	02000713          	li	a4,32
    468e:	8f1d                	sub	a4,a4,a5
    4690:	cb19                	beqz	a4,46a6 <__udivdi3+0x4e>
    4692:	00e59833          	sll	a6,a1,a4
    4696:	00f557b3          	srl	a5,a0,a5
    469a:	00e618b3          	sll	a7,a2,a4
    469e:	0107e833          	or	a6,a5,a6
    46a2:	00e51333          	sll	t1,a0,a4
    46a6:	0108d613          	srli	a2,a7,0x10
    46aa:	02c85533          	divu	a0,a6,a2
    46ae:	01089693          	slli	a3,a7,0x10
    46b2:	82c1                	srli	a3,a3,0x10
    46b4:	01035793          	srli	a5,t1,0x10
    46b8:	02c87733          	remu	a4,a6,a2
    46bc:	02a685b3          	mul	a1,a3,a0
    46c0:	0742                	slli	a4,a4,0x10
    46c2:	00f76833          	or	a6,a4,a5
    46c6:	00b87a63          	bgeu	a6,a1,46da <__udivdi3+0x82>
    46ca:	9846                	add	a6,a6,a7
    46cc:	fff50793          	addi	a5,a0,-1
    46d0:	01186463          	bltu	a6,a7,46d8 <__udivdi3+0x80>
    46d4:	30b86563          	bltu	a6,a1,49de <__udivdi3+0x386>
    46d8:	853e                	mv	a0,a5
    46da:	40b80833          	sub	a6,a6,a1
    46de:	02c85733          	divu	a4,a6,a2
    46e2:	0342                	slli	t1,t1,0x10
    46e4:	01035313          	srli	t1,t1,0x10
    46e8:	02c87833          	remu	a6,a6,a2
    46ec:	02e686b3          	mul	a3,a3,a4
    46f0:	0842                	slli	a6,a6,0x10
    46f2:	00686833          	or	a6,a6,t1
    46f6:	00d87b63          	bgeu	a6,a3,470c <__udivdi3+0xb4>
    46fa:	9846                	add	a6,a6,a7
    46fc:	fff70793          	addi	a5,a4,-1
    4700:	01186563          	bltu	a6,a7,470a <__udivdi3+0xb2>
    4704:	1779                	addi	a4,a4,-2
    4706:	00d86363          	bltu	a6,a3,470c <__udivdi3+0xb4>
    470a:	873e                	mv	a4,a5
    470c:	0542                	slli	a0,a0,0x10
    470e:	8d59                	or	a0,a0,a4
    4710:	4581                	li	a1,0
    4712:	8082                	ret
    4714:	e601                	bnez	a2,471c <__udivdi3+0xc4>
    4716:	4705                	li	a4,1
    4718:	02c758b3          	divu	a7,a4,a2
    471c:	6741                	lui	a4,0x10
    471e:	0ee8e863          	bltu	a7,a4,480e <__udivdi3+0x1b6>
    4722:	010007b7          	lui	a5,0x1000
    4726:	28f8ea63          	bltu	a7,a5,49ba <__udivdi3+0x362>
    472a:	0188d693          	srli	a3,a7,0x18
    472e:	47e1                	li	a5,24
    4730:	00001717          	auipc	a4,0x1
    4734:	63470713          	addi	a4,a4,1588 # 5d64 <__clz_tab>
    4738:	9736                	add	a4,a4,a3
    473a:	2314                	lbu	a3,0(a4)
    473c:	96be                	add	a3,a3,a5
    473e:	02000793          	li	a5,32
    4742:	8f95                	sub	a5,a5,a3
    4744:	e7fd                	bnez	a5,4832 <__udivdi3+0x1da>
    4746:	01089e93          	slli	t4,a7,0x10
    474a:	41158733          	sub	a4,a1,a7
    474e:	0108df13          	srli	t5,a7,0x10
    4752:	010ede93          	srli	t4,t4,0x10
    4756:	4585                	li	a1,1
    4758:	01035793          	srli	a5,t1,0x10
    475c:	03e75533          	divu	a0,a4,t5
    4760:	03e77733          	remu	a4,a4,t5
    4764:	03d506b3          	mul	a3,a0,t4
    4768:	0742                	slli	a4,a4,0x10
    476a:	8fd9                	or	a5,a5,a4
    476c:	00d7fa63          	bgeu	a5,a3,4780 <__udivdi3+0x128>
    4770:	97c6                	add	a5,a5,a7
    4772:	fff50713          	addi	a4,a0,-1
    4776:	0117e463          	bltu	a5,a7,477e <__udivdi3+0x126>
    477a:	26d7e563          	bltu	a5,a3,49e4 <__udivdi3+0x38c>
    477e:	853a                	mv	a0,a4
    4780:	8f95                	sub	a5,a5,a3
    4782:	03e7d733          	divu	a4,a5,t5
    4786:	0342                	slli	t1,t1,0x10
    4788:	01035313          	srli	t1,t1,0x10
    478c:	03e7f7b3          	remu	a5,a5,t5
    4790:	03d70eb3          	mul	t4,a4,t4
    4794:	07c2                	slli	a5,a5,0x10
    4796:	0067e7b3          	or	a5,a5,t1
    479a:	01d7fb63          	bgeu	a5,t4,47b0 <__udivdi3+0x158>
    479e:	97c6                	add	a5,a5,a7
    47a0:	fff70693          	addi	a3,a4,-1
    47a4:	0117e563          	bltu	a5,a7,47ae <__udivdi3+0x156>
    47a8:	1779                	addi	a4,a4,-2
    47aa:	01d7e363          	bltu	a5,t4,47b0 <__udivdi3+0x158>
    47ae:	8736                	mv	a4,a3
    47b0:	0542                	slli	a0,a0,0x10
    47b2:	8d59                	or	a0,a0,a4
    47b4:	8082                	ret
    47b6:	04d5e163          	bltu	a1,a3,47f8 <__udivdi3+0x1a0>
    47ba:	67c1                	lui	a5,0x10
    47bc:	04f6e163          	bltu	a3,a5,47fe <__udivdi3+0x1a6>
    47c0:	010007b7          	lui	a5,0x1000
    47c4:	1ef6e363          	bltu	a3,a5,49aa <__udivdi3+0x352>
    47c8:	0186d713          	srli	a4,a3,0x18
    47cc:	4861                	li	a6,24
    47ce:	00001797          	auipc	a5,0x1
    47d2:	59678793          	addi	a5,a5,1430 # 5d64 <__clz_tab>
    47d6:	97ba                	add	a5,a5,a4
    47d8:	2398                	lbu	a4,0(a5)
    47da:	02000e13          	li	t3,32
    47de:	9742                	add	a4,a4,a6
    47e0:	40ee0e33          	sub	t3,t3,a4
    47e4:	0c0e1a63          	bnez	t3,48b8 <__udivdi3+0x260>
    47e8:	1cb6ed63          	bltu	a3,a1,49c2 <__udivdi3+0x36a>
    47ec:	00c53533          	sltu	a0,a0,a2
    47f0:	00154513          	xori	a0,a0,1
    47f4:	4581                	li	a1,0
    47f6:	8082                	ret
    47f8:	4581                	li	a1,0
    47fa:	4501                	li	a0,0
    47fc:	8082                	ret
    47fe:	0ff00793          	li	a5,255
    4802:	1cd7f363          	bgeu	a5,a3,49c8 <__udivdi3+0x370>
    4806:	0086d713          	srli	a4,a3,0x8
    480a:	4821                	li	a6,8
    480c:	b7c9                	j	47ce <__udivdi3+0x176>
    480e:	0ff00713          	li	a4,255
    4812:	86c6                	mv	a3,a7
    4814:	f1177ee3          	bgeu	a4,a7,4730 <__udivdi3+0xd8>
    4818:	0088d693          	srli	a3,a7,0x8
    481c:	47a1                	li	a5,8
    481e:	bf09                	j	4730 <__udivdi3+0xd8>
    4820:	0ff00713          	li	a4,255
    4824:	86b2                	mv	a3,a2
    4826:	e4c77be3          	bgeu	a4,a2,467c <__udivdi3+0x24>
    482a:	00865693          	srli	a3,a2,0x8
    482e:	47a1                	li	a5,8
    4830:	b5b1                	j	467c <__udivdi3+0x24>
    4832:	00f898b3          	sll	a7,a7,a5
    4836:	00d5d633          	srl	a2,a1,a3
    483a:	0108df13          	srli	t5,a7,0x10
    483e:	03e65e33          	divu	t3,a2,t5
    4842:	00f59733          	sll	a4,a1,a5
    4846:	00d556b3          	srl	a3,a0,a3
    484a:	8f55                	or	a4,a4,a3
    484c:	01089e93          	slli	t4,a7,0x10
    4850:	010ede93          	srli	t4,t4,0x10
    4854:	00f51333          	sll	t1,a0,a5
    4858:	01075593          	srli	a1,a4,0x10
    485c:	03e676b3          	remu	a3,a2,t5
    4860:	03ce87b3          	mul	a5,t4,t3
    4864:	06c2                	slli	a3,a3,0x10
    4866:	8ecd                	or	a3,a3,a1
    4868:	00f6fb63          	bgeu	a3,a5,487e <__udivdi3+0x226>
    486c:	96c6                	add	a3,a3,a7
    486e:	fffe0613          	addi	a2,t3,-1
    4872:	1716e463          	bltu	a3,a7,49da <__udivdi3+0x382>
    4876:	16f6f263          	bgeu	a3,a5,49da <__udivdi3+0x382>
    487a:	1e79                	addi	t3,t3,-2
    487c:	96c6                	add	a3,a3,a7
    487e:	8e9d                	sub	a3,a3,a5
    4880:	03e6d633          	divu	a2,a3,t5
    4884:	01071793          	slli	a5,a4,0x10
    4888:	83c1                	srli	a5,a5,0x10
    488a:	03e6f6b3          	remu	a3,a3,t5
    488e:	02ce8533          	mul	a0,t4,a2
    4892:	01069713          	slli	a4,a3,0x10
    4896:	8f5d                	or	a4,a4,a5
    4898:	00a77b63          	bgeu	a4,a0,48ae <__udivdi3+0x256>
    489c:	9746                	add	a4,a4,a7
    489e:	fff60793          	addi	a5,a2,-1
    48a2:	13176863          	bltu	a4,a7,49d2 <__udivdi3+0x37a>
    48a6:	12a77663          	bgeu	a4,a0,49d2 <__udivdi3+0x37a>
    48aa:	1679                	addi	a2,a2,-2
    48ac:	9746                	add	a4,a4,a7
    48ae:	010e1593          	slli	a1,t3,0x10
    48b2:	8f09                	sub	a4,a4,a0
    48b4:	8dd1                	or	a1,a1,a2
    48b6:	b54d                	j	4758 <__udivdi3+0x100>
    48b8:	00e657b3          	srl	a5,a2,a4
    48bc:	01c696b3          	sll	a3,a3,t3
    48c0:	8edd                	or	a3,a3,a5
    48c2:	00e5d333          	srl	t1,a1,a4
    48c6:	0106df13          	srli	t5,a3,0x10
    48ca:	03e357b3          	divu	a5,t1,t5
    48ce:	01069e93          	slli	t4,a3,0x10
    48d2:	010ede93          	srli	t4,t4,0x10
    48d6:	01c59833          	sll	a6,a1,t3
    48da:	00e55733          	srl	a4,a0,a4
    48de:	01076833          	or	a6,a4,a6
    48e2:	01085893          	srli	a7,a6,0x10
    48e6:	01c61633          	sll	a2,a2,t3
    48ea:	03e37333          	remu	t1,t1,t5
    48ee:	02fe85b3          	mul	a1,t4,a5
    48f2:	0342                	slli	t1,t1,0x10
    48f4:	011368b3          	or	a7,t1,a7
    48f8:	00b8fb63          	bgeu	a7,a1,490e <__udivdi3+0x2b6>
    48fc:	98b6                	add	a7,a7,a3
    48fe:	fff78713          	addi	a4,a5,-1
    4902:	0cd8ea63          	bltu	a7,a3,49d6 <__udivdi3+0x37e>
    4906:	0cb8f863          	bgeu	a7,a1,49d6 <__udivdi3+0x37e>
    490a:	17f9                	addi	a5,a5,-2
    490c:	98b6                	add	a7,a7,a3
    490e:	40b888b3          	sub	a7,a7,a1
    4912:	03e8d733          	divu	a4,a7,t5
    4916:	0842                	slli	a6,a6,0x10
    4918:	01085813          	srli	a6,a6,0x10
    491c:	03e8f8b3          	remu	a7,a7,t5
    4920:	02ee8333          	mul	t1,t4,a4
    4924:	08c2                	slli	a7,a7,0x10
    4926:	0108e5b3          	or	a1,a7,a6
    492a:	0065fb63          	bgeu	a1,t1,4940 <__udivdi3+0x2e8>
    492e:	95b6                	add	a1,a1,a3
    4930:	fff70813          	addi	a6,a4,-1
    4934:	08d5ed63          	bltu	a1,a3,49ce <__udivdi3+0x376>
    4938:	0865fb63          	bgeu	a1,t1,49ce <__udivdi3+0x376>
    493c:	1779                	addi	a4,a4,-2
    493e:	95b6                	add	a1,a1,a3
    4940:	07c2                	slli	a5,a5,0x10
    4942:	6f41                	lui	t5,0x10
    4944:	8fd9                	or	a5,a5,a4
    4946:	ffff0713          	addi	a4,t5,-1 # ffff <_data_lma+0xa0fb>
    494a:	00e7f6b3          	and	a3,a5,a4
    494e:	0107d893          	srli	a7,a5,0x10
    4952:	8f71                	and	a4,a4,a2
    4954:	8241                	srli	a2,a2,0x10
    4956:	02e68eb3          	mul	t4,a3,a4
    495a:	406585b3          	sub	a1,a1,t1
    495e:	02c686b3          	mul	a3,a3,a2
    4962:	010ed813          	srli	a6,t4,0x10
    4966:	02e88733          	mul	a4,a7,a4
    496a:	96ba                	add	a3,a3,a4
    496c:	96c2                	add	a3,a3,a6
    496e:	02c88633          	mul	a2,a7,a2
    4972:	00e6f363          	bgeu	a3,a4,4978 <__udivdi3+0x320>
    4976:	967a                	add	a2,a2,t5
    4978:	0106d893          	srli	a7,a3,0x10
    497c:	9646                	add	a2,a2,a7
    497e:	02c5e263          	bltu	a1,a2,49a2 <__udivdi3+0x34a>
    4982:	00c58563          	beq	a1,a2,498c <__udivdi3+0x334>
    4986:	853e                	mv	a0,a5
    4988:	4581                	li	a1,0
    498a:	8082                	ret
    498c:	6741                	lui	a4,0x10
    498e:	177d                	addi	a4,a4,-1
    4990:	8ef9                	and	a3,a3,a4
    4992:	06c2                	slli	a3,a3,0x10
    4994:	00eefeb3          	and	t4,t4,a4
    4998:	01c51533          	sll	a0,a0,t3
    499c:	96f6                	add	a3,a3,t4
    499e:	fed574e3          	bgeu	a0,a3,4986 <__udivdi3+0x32e>
    49a2:	fff78513          	addi	a0,a5,-1
    49a6:	4581                	li	a1,0
    49a8:	8082                	ret
    49aa:	0106d713          	srli	a4,a3,0x10
    49ae:	4841                	li	a6,16
    49b0:	bd39                	j	47ce <__udivdi3+0x176>
    49b2:	01065693          	srli	a3,a2,0x10
    49b6:	47c1                	li	a5,16
    49b8:	b1d1                	j	467c <__udivdi3+0x24>
    49ba:	0108d693          	srli	a3,a7,0x10
    49be:	47c1                	li	a5,16
    49c0:	bb85                	j	4730 <__udivdi3+0xd8>
    49c2:	4581                	li	a1,0
    49c4:	4505                	li	a0,1
    49c6:	8082                	ret
    49c8:	8736                	mv	a4,a3
    49ca:	4801                	li	a6,0
    49cc:	b509                	j	47ce <__udivdi3+0x176>
    49ce:	8742                	mv	a4,a6
    49d0:	bf85                	j	4940 <__udivdi3+0x2e8>
    49d2:	863e                	mv	a2,a5
    49d4:	bde9                	j	48ae <__udivdi3+0x256>
    49d6:	87ba                	mv	a5,a4
    49d8:	bf1d                	j	490e <__udivdi3+0x2b6>
    49da:	8e32                	mv	t3,a2
    49dc:	b54d                	j	487e <__udivdi3+0x226>
    49de:	1579                	addi	a0,a0,-2
    49e0:	9846                	add	a6,a6,a7
    49e2:	b9e5                	j	46da <__udivdi3+0x82>
    49e4:	1579                	addi	a0,a0,-2
    49e6:	97c6                	add	a5,a5,a7
    49e8:	bb61                	j	4780 <__udivdi3+0x128>

000049ea <__riscv_save_12>:
    49ea:	7139                	addi	sp,sp,-64
    49ec:	4301                	li	t1,0
    49ee:	c66e                	sw	s11,12(sp)
    49f0:	a019                	j	49f6 <__riscv_save_10+0x4>

000049f2 <__riscv_save_10>:
    49f2:	7139                	addi	sp,sp,-64
    49f4:	5341                	li	t1,-16
    49f6:	c86a                	sw	s10,16(sp)
    49f8:	ca66                	sw	s9,20(sp)
    49fa:	cc62                	sw	s8,24(sp)
    49fc:	ce5e                	sw	s7,28(sp)
    49fe:	a019                	j	4a04 <__riscv_save_4+0x4>

00004a00 <__riscv_save_4>:
    4a00:	7139                	addi	sp,sp,-64
    4a02:	5301                	li	t1,-32
    4a04:	d05a                	sw	s6,32(sp)
    4a06:	d256                	sw	s5,36(sp)
    4a08:	d452                	sw	s4,40(sp)
    4a0a:	d64e                	sw	s3,44(sp)
    4a0c:	d84a                	sw	s2,48(sp)
    4a0e:	da26                	sw	s1,52(sp)
    4a10:	dc22                	sw	s0,56(sp)
    4a12:	de06                	sw	ra,60(sp)
    4a14:	40610133          	sub	sp,sp,t1
    4a18:	8282                	jr	t0

00004a1a <__riscv_save_0>:
    4a1a:	1141                	addi	sp,sp,-16
    4a1c:	c04a                	sw	s2,0(sp)
    4a1e:	c226                	sw	s1,4(sp)
    4a20:	c422                	sw	s0,8(sp)
    4a22:	c606                	sw	ra,12(sp)
    4a24:	8282                	jr	t0

00004a26 <__riscv_restore_12>:
    4a26:	4db2                	lw	s11,12(sp)
    4a28:	0141                	addi	sp,sp,16

00004a2a <__riscv_restore_10>:
    4a2a:	4d02                	lw	s10,0(sp)
    4a2c:	4c92                	lw	s9,4(sp)
    4a2e:	4c22                	lw	s8,8(sp)
    4a30:	4bb2                	lw	s7,12(sp)
    4a32:	0141                	addi	sp,sp,16

00004a34 <__riscv_restore_4>:
    4a34:	4b02                	lw	s6,0(sp)
    4a36:	4a92                	lw	s5,4(sp)
    4a38:	4a22                	lw	s4,8(sp)
    4a3a:	49b2                	lw	s3,12(sp)
    4a3c:	0141                	addi	sp,sp,16

00004a3e <__riscv_restore_0>:
    4a3e:	4902                	lw	s2,0(sp)
    4a40:	4492                	lw	s1,4(sp)
    4a42:	4422                	lw	s0,8(sp)
    4a44:	40b2                	lw	ra,12(sp)
    4a46:	0141                	addi	sp,sp,16
    4a48:	8082                	ret

00004a4a <memset>:
    4a4a:	433d                	li	t1,15
    4a4c:	872a                	mv	a4,a0
    4a4e:	02c37363          	bgeu	t1,a2,4a74 <memset+0x2a>
    4a52:	00f77793          	andi	a5,a4,15
    4a56:	efbd                	bnez	a5,4ad4 <memset+0x8a>
    4a58:	e5ad                	bnez	a1,4ac2 <memset+0x78>
    4a5a:	ff067693          	andi	a3,a2,-16
    4a5e:	8a3d                	andi	a2,a2,15
    4a60:	96ba                	add	a3,a3,a4
    4a62:	c30c                	sw	a1,0(a4)
    4a64:	c34c                	sw	a1,4(a4)
    4a66:	c70c                	sw	a1,8(a4)
    4a68:	c74c                	sw	a1,12(a4)
    4a6a:	0741                	addi	a4,a4,16
    4a6c:	fed76be3          	bltu	a4,a3,4a62 <memset+0x18>
    4a70:	e211                	bnez	a2,4a74 <memset+0x2a>
    4a72:	8082                	ret
    4a74:	40c306b3          	sub	a3,t1,a2
    4a78:	068a                	slli	a3,a3,0x2
    4a7a:	00000297          	auipc	t0,0x0
    4a7e:	9696                	add	a3,a3,t0
    4a80:	00a68067          	jr	10(a3)
    4a84:	00b70723          	sb	a1,14(a4) # 1000e <_data_lma+0xa10a>
    4a88:	00b706a3          	sb	a1,13(a4)
    4a8c:	00b70623          	sb	a1,12(a4)
    4a90:	00b705a3          	sb	a1,11(a4)
    4a94:	00b70523          	sb	a1,10(a4)
    4a98:	00b704a3          	sb	a1,9(a4)
    4a9c:	00b70423          	sb	a1,8(a4)
    4aa0:	00b703a3          	sb	a1,7(a4)
    4aa4:	00b70323          	sb	a1,6(a4)
    4aa8:	00b702a3          	sb	a1,5(a4)
    4aac:	00b70223          	sb	a1,4(a4)
    4ab0:	00b701a3          	sb	a1,3(a4)
    4ab4:	00b70123          	sb	a1,2(a4)
    4ab8:	00b700a3          	sb	a1,1(a4)
    4abc:	00b70023          	sb	a1,0(a4)
    4ac0:	8082                	ret
    4ac2:	0ff5f593          	andi	a1,a1,255
    4ac6:	00859693          	slli	a3,a1,0x8
    4aca:	8dd5                	or	a1,a1,a3
    4acc:	01059693          	slli	a3,a1,0x10
    4ad0:	8dd5                	or	a1,a1,a3
    4ad2:	b761                	j	4a5a <memset+0x10>
    4ad4:	00279693          	slli	a3,a5,0x2
    4ad8:	00000297          	auipc	t0,0x0
    4adc:	9696                	add	a3,a3,t0
    4ade:	8286                	mv	t0,ra
    4ae0:	fa8680e7          	jalr	-88(a3)
    4ae4:	8096                	mv	ra,t0
    4ae6:	17c1                	addi	a5,a5,-16
    4ae8:	8f1d                	sub	a4,a4,a5
    4aea:	963e                	add	a2,a2,a5
    4aec:	f8c374e3          	bgeu	t1,a2,4a74 <memset+0x2a>
    4af0:	b7a5                	j	4a58 <memset+0xe>

00004af2 <iprintf>:
    4af2:	7139                	addi	sp,sp,-64
    4af4:	da3e                	sw	a5,52(sp)
    4af6:	d22e                	sw	a1,36(sp)
    4af8:	d432                	sw	a2,40(sp)
    4afa:	d636                	sw	a3,44(sp)
    4afc:	d83a                	sw	a4,48(sp)
    4afe:	dc42                	sw	a6,56(sp)
    4b00:	de46                	sw	a7,60(sp)
    4b02:	80c18793          	addi	a5,gp,-2036 # 2000007c <_impure_ptr>
    4b06:	cc22                	sw	s0,24(sp)
    4b08:	4380                	lw	s0,0(a5)
    4b0a:	ca26                	sw	s1,20(sp)
    4b0c:	ce06                	sw	ra,28(sp)
    4b0e:	84aa                	mv	s1,a0
    4b10:	c409                	beqz	s0,4b1a <iprintf+0x28>
    4b12:	4c1c                	lw	a5,24(s0)
    4b14:	e399                	bnez	a5,4b1a <iprintf+0x28>
    4b16:	8522                	mv	a0,s0
    4b18:	29ed                	jal	5012 <__sinit>
    4b1a:	440c                	lw	a1,8(s0)
    4b1c:	1054                	addi	a3,sp,36
    4b1e:	8626                	mv	a2,s1
    4b20:	8522                	mv	a0,s0
    4b22:	c636                	sw	a3,12(sp)
    4b24:	12f000ef          	jal	ra,5452 <_vfiprintf_r>
    4b28:	40f2                	lw	ra,28(sp)
    4b2a:	4462                	lw	s0,24(sp)
    4b2c:	44d2                	lw	s1,20(sp)
    4b2e:	6121                	addi	sp,sp,64
    4b30:	8082                	ret

00004b32 <_puts_r>:
    4b32:	1101                	addi	sp,sp,-32
    4b34:	ca26                	sw	s1,20(sp)
    4b36:	c84a                	sw	s2,16(sp)
    4b38:	ce06                	sw	ra,28(sp)
    4b3a:	cc22                	sw	s0,24(sp)
    4b3c:	c64e                	sw	s3,12(sp)
    4b3e:	c452                	sw	s4,8(sp)
    4b40:	84aa                	mv	s1,a0
    4b42:	892e                	mv	s2,a1
    4b44:	c501                	beqz	a0,4b4c <_puts_r+0x1a>
    4b46:	4d1c                	lw	a5,24(a0)
    4b48:	e391                	bnez	a5,4b4c <_puts_r+0x1a>
    4b4a:	21e1                	jal	5012 <__sinit>
    4b4c:	4c9c                	lw	a5,24(s1)
    4b4e:	4480                	lw	s0,8(s1)
    4b50:	e399                	bnez	a5,4b56 <_puts_r+0x24>
    4b52:	8526                	mv	a0,s1
    4b54:	297d                	jal	5012 <__sinit>
    4b56:	00001797          	auipc	a5,0x1
    4b5a:	32e78793          	addi	a5,a5,814 # 5e84 <__sf_fake_stdin>
    4b5e:	02f41b63          	bne	s0,a5,4b94 <_puts_r+0x62>
    4b62:	40c0                	lw	s0,4(s1)
    4b64:	245e                	lhu	a5,12(s0)
    4b66:	8ba1                	andi	a5,a5,8
    4b68:	c7b1                	beqz	a5,4bb4 <_puts_r+0x82>
    4b6a:	481c                	lw	a5,16(s0)
    4b6c:	c7a1                	beqz	a5,4bb4 <_puts_r+0x82>
    4b6e:	59fd                	li	s3,-1
    4b70:	4a29                	li	s4,10
    4b72:	441c                	lw	a5,8(s0)
    4b74:	00094583          	lbu	a1,0(s2)
    4b78:	17fd                	addi	a5,a5,-1
    4b7a:	e9b1                	bnez	a1,4bce <_puts_r+0x9c>
    4b7c:	c41c                	sw	a5,8(s0)
    4b7e:	0607dd63          	bgez	a5,4bf8 <_puts_r+0xc6>
    4b82:	8622                	mv	a2,s0
    4b84:	45a9                	li	a1,10
    4b86:	8526                	mv	a0,s1
    4b88:	2061                	jal	4c10 <__swbuf_r>
    4b8a:	57fd                	li	a5,-1
    4b8c:	02f50863          	beq	a0,a5,4bbc <_puts_r+0x8a>
    4b90:	4529                	li	a0,10
    4b92:	a035                	j	4bbe <_puts_r+0x8c>
    4b94:	00001797          	auipc	a5,0x1
    4b98:	31078793          	addi	a5,a5,784 # 5ea4 <__sf_fake_stdout>
    4b9c:	00f41463          	bne	s0,a5,4ba4 <_puts_r+0x72>
    4ba0:	4480                	lw	s0,8(s1)
    4ba2:	b7c9                	j	4b64 <_puts_r+0x32>
    4ba4:	00001797          	auipc	a5,0x1
    4ba8:	2c078793          	addi	a5,a5,704 # 5e64 <__sf_fake_stderr>
    4bac:	faf41ce3          	bne	s0,a5,4b64 <_puts_r+0x32>
    4bb0:	44c0                	lw	s0,12(s1)
    4bb2:	bf4d                	j	4b64 <_puts_r+0x32>
    4bb4:	85a2                	mv	a1,s0
    4bb6:	8526                	mv	a0,s1
    4bb8:	2a11                	jal	4ccc <__swsetup_r>
    4bba:	d955                	beqz	a0,4b6e <_puts_r+0x3c>
    4bbc:	557d                	li	a0,-1
    4bbe:	40f2                	lw	ra,28(sp)
    4bc0:	4462                	lw	s0,24(sp)
    4bc2:	44d2                	lw	s1,20(sp)
    4bc4:	4942                	lw	s2,16(sp)
    4bc6:	49b2                	lw	s3,12(sp)
    4bc8:	4a22                	lw	s4,8(sp)
    4bca:	6105                	addi	sp,sp,32
    4bcc:	8082                	ret
    4bce:	c41c                	sw	a5,8(s0)
    4bd0:	0905                	addi	s2,s2,1
    4bd2:	0007d763          	bgez	a5,4be0 <_puts_r+0xae>
    4bd6:	4c18                	lw	a4,24(s0)
    4bd8:	00e7ca63          	blt	a5,a4,4bec <_puts_r+0xba>
    4bdc:	01458863          	beq	a1,s4,4bec <_puts_r+0xba>
    4be0:	401c                	lw	a5,0(s0)
    4be2:	00178713          	addi	a4,a5,1
    4be6:	c018                	sw	a4,0(s0)
    4be8:	a38c                	sb	a1,0(a5)
    4bea:	b761                	j	4b72 <_puts_r+0x40>
    4bec:	8622                	mv	a2,s0
    4bee:	8526                	mv	a0,s1
    4bf0:	2005                	jal	4c10 <__swbuf_r>
    4bf2:	f93510e3          	bne	a0,s3,4b72 <_puts_r+0x40>
    4bf6:	b7d9                	j	4bbc <_puts_r+0x8a>
    4bf8:	401c                	lw	a5,0(s0)
    4bfa:	00178713          	addi	a4,a5,1
    4bfe:	c018                	sw	a4,0(s0)
    4c00:	4729                	li	a4,10
    4c02:	a398                	sb	a4,0(a5)
    4c04:	b771                	j	4b90 <_puts_r+0x5e>

00004c06 <puts>:
    4c06:	80c18793          	addi	a5,gp,-2036 # 2000007c <_impure_ptr>
    4c0a:	85aa                	mv	a1,a0
    4c0c:	4388                	lw	a0,0(a5)
    4c0e:	b715                	j	4b32 <_puts_r>

00004c10 <__swbuf_r>:
    4c10:	1101                	addi	sp,sp,-32
    4c12:	cc22                	sw	s0,24(sp)
    4c14:	ca26                	sw	s1,20(sp)
    4c16:	c84a                	sw	s2,16(sp)
    4c18:	ce06                	sw	ra,28(sp)
    4c1a:	c64e                	sw	s3,12(sp)
    4c1c:	84aa                	mv	s1,a0
    4c1e:	892e                	mv	s2,a1
    4c20:	8432                	mv	s0,a2
    4c22:	c501                	beqz	a0,4c2a <__swbuf_r+0x1a>
    4c24:	4d1c                	lw	a5,24(a0)
    4c26:	e391                	bnez	a5,4c2a <__swbuf_r+0x1a>
    4c28:	26ed                	jal	5012 <__sinit>
    4c2a:	00001797          	auipc	a5,0x1
    4c2e:	25a78793          	addi	a5,a5,602 # 5e84 <__sf_fake_stdin>
    4c32:	06f41763          	bne	s0,a5,4ca0 <__swbuf_r+0x90>
    4c36:	40c0                	lw	s0,4(s1)
    4c38:	4c1c                	lw	a5,24(s0)
    4c3a:	c41c                	sw	a5,8(s0)
    4c3c:	245e                	lhu	a5,12(s0)
    4c3e:	8ba1                	andi	a5,a5,8
    4c40:	c3c1                	beqz	a5,4cc0 <__swbuf_r+0xb0>
    4c42:	481c                	lw	a5,16(s0)
    4c44:	cfb5                	beqz	a5,4cc0 <__swbuf_r+0xb0>
    4c46:	481c                	lw	a5,16(s0)
    4c48:	4008                	lw	a0,0(s0)
    4c4a:	0ff97993          	andi	s3,s2,255
    4c4e:	0ff97913          	andi	s2,s2,255
    4c52:	8d1d                	sub	a0,a0,a5
    4c54:	485c                	lw	a5,20(s0)
    4c56:	00f54663          	blt	a0,a5,4c62 <__swbuf_r+0x52>
    4c5a:	85a2                	mv	a1,s0
    4c5c:	8526                	mv	a0,s1
    4c5e:	2c69                	jal	4ef8 <_fflush_r>
    4c60:	e525                	bnez	a0,4cc8 <__swbuf_r+0xb8>
    4c62:	441c                	lw	a5,8(s0)
    4c64:	0505                	addi	a0,a0,1
    4c66:	17fd                	addi	a5,a5,-1
    4c68:	c41c                	sw	a5,8(s0)
    4c6a:	401c                	lw	a5,0(s0)
    4c6c:	00178713          	addi	a4,a5,1
    4c70:	c018                	sw	a4,0(s0)
    4c72:	01378023          	sb	s3,0(a5)
    4c76:	485c                	lw	a5,20(s0)
    4c78:	00a78863          	beq	a5,a0,4c88 <__swbuf_r+0x78>
    4c7c:	245e                	lhu	a5,12(s0)
    4c7e:	8b85                	andi	a5,a5,1
    4c80:	cb81                	beqz	a5,4c90 <__swbuf_r+0x80>
    4c82:	47a9                	li	a5,10
    4c84:	00f91663          	bne	s2,a5,4c90 <__swbuf_r+0x80>
    4c88:	85a2                	mv	a1,s0
    4c8a:	8526                	mv	a0,s1
    4c8c:	24b5                	jal	4ef8 <_fflush_r>
    4c8e:	ed0d                	bnez	a0,4cc8 <__swbuf_r+0xb8>
    4c90:	40f2                	lw	ra,28(sp)
    4c92:	4462                	lw	s0,24(sp)
    4c94:	854a                	mv	a0,s2
    4c96:	44d2                	lw	s1,20(sp)
    4c98:	4942                	lw	s2,16(sp)
    4c9a:	49b2                	lw	s3,12(sp)
    4c9c:	6105                	addi	sp,sp,32
    4c9e:	8082                	ret
    4ca0:	00001797          	auipc	a5,0x1
    4ca4:	20478793          	addi	a5,a5,516 # 5ea4 <__sf_fake_stdout>
    4ca8:	00f41463          	bne	s0,a5,4cb0 <__swbuf_r+0xa0>
    4cac:	4480                	lw	s0,8(s1)
    4cae:	b769                	j	4c38 <__swbuf_r+0x28>
    4cb0:	00001797          	auipc	a5,0x1
    4cb4:	1b478793          	addi	a5,a5,436 # 5e64 <__sf_fake_stderr>
    4cb8:	f8f410e3          	bne	s0,a5,4c38 <__swbuf_r+0x28>
    4cbc:	44c0                	lw	s0,12(s1)
    4cbe:	bfad                	j	4c38 <__swbuf_r+0x28>
    4cc0:	85a2                	mv	a1,s0
    4cc2:	8526                	mv	a0,s1
    4cc4:	2021                	jal	4ccc <__swsetup_r>
    4cc6:	d141                	beqz	a0,4c46 <__swbuf_r+0x36>
    4cc8:	597d                	li	s2,-1
    4cca:	b7d9                	j	4c90 <__swbuf_r+0x80>

00004ccc <__swsetup_r>:
    4ccc:	1141                	addi	sp,sp,-16
    4cce:	80c18793          	addi	a5,gp,-2036 # 2000007c <_impure_ptr>
    4cd2:	c226                	sw	s1,4(sp)
    4cd4:	4384                	lw	s1,0(a5)
    4cd6:	c422                	sw	s0,8(sp)
    4cd8:	c04a                	sw	s2,0(sp)
    4cda:	c606                	sw	ra,12(sp)
    4cdc:	892a                	mv	s2,a0
    4cde:	842e                	mv	s0,a1
    4ce0:	c489                	beqz	s1,4cea <__swsetup_r+0x1e>
    4ce2:	4c9c                	lw	a5,24(s1)
    4ce4:	e399                	bnez	a5,4cea <__swsetup_r+0x1e>
    4ce6:	8526                	mv	a0,s1
    4ce8:	262d                	jal	5012 <__sinit>
    4cea:	00001797          	auipc	a5,0x1
    4cee:	19a78793          	addi	a5,a5,410 # 5e84 <__sf_fake_stdin>
    4cf2:	02f41b63          	bne	s0,a5,4d28 <__swsetup_r+0x5c>
    4cf6:	40c0                	lw	s0,4(s1)
    4cf8:	00c41703          	lh	a4,12(s0)
    4cfc:	01071793          	slli	a5,a4,0x10
    4d00:	83c1                	srli	a5,a5,0x10
    4d02:	0087f693          	andi	a3,a5,8
    4d06:	eaad                	bnez	a3,4d78 <__swsetup_r+0xac>
    4d08:	0107f693          	andi	a3,a5,16
    4d0c:	ee95                	bnez	a3,4d48 <__swsetup_r+0x7c>
    4d0e:	47a5                	li	a5,9
    4d10:	00f92023          	sw	a5,0(s2)
    4d14:	04076713          	ori	a4,a4,64
    4d18:	a45a                	sh	a4,12(s0)
    4d1a:	557d                	li	a0,-1
    4d1c:	40b2                	lw	ra,12(sp)
    4d1e:	4422                	lw	s0,8(sp)
    4d20:	4492                	lw	s1,4(sp)
    4d22:	4902                	lw	s2,0(sp)
    4d24:	0141                	addi	sp,sp,16
    4d26:	8082                	ret
    4d28:	00001797          	auipc	a5,0x1
    4d2c:	17c78793          	addi	a5,a5,380 # 5ea4 <__sf_fake_stdout>
    4d30:	00f41463          	bne	s0,a5,4d38 <__swsetup_r+0x6c>
    4d34:	4480                	lw	s0,8(s1)
    4d36:	b7c9                	j	4cf8 <__swsetup_r+0x2c>
    4d38:	00001797          	auipc	a5,0x1
    4d3c:	12c78793          	addi	a5,a5,300 # 5e64 <__sf_fake_stderr>
    4d40:	faf41ce3          	bne	s0,a5,4cf8 <__swsetup_r+0x2c>
    4d44:	44c0                	lw	s0,12(s1)
    4d46:	bf4d                	j	4cf8 <__swsetup_r+0x2c>
    4d48:	8b91                	andi	a5,a5,4
    4d4a:	c39d                	beqz	a5,4d70 <__swsetup_r+0xa4>
    4d4c:	584c                	lw	a1,52(s0)
    4d4e:	c989                	beqz	a1,4d60 <__swsetup_r+0x94>
    4d50:	04440793          	addi	a5,s0,68
    4d54:	00f58463          	beq	a1,a5,4d5c <__swsetup_r+0x90>
    4d58:	854a                	mv	a0,s2
    4d5a:	2b11                	jal	526e <_free_r>
    4d5c:	02042a23          	sw	zero,52(s0)
    4d60:	245e                	lhu	a5,12(s0)
    4d62:	00042223          	sw	zero,4(s0)
    4d66:	fdb7f793          	andi	a5,a5,-37
    4d6a:	a45e                	sh	a5,12(s0)
    4d6c:	481c                	lw	a5,16(s0)
    4d6e:	c01c                	sw	a5,0(s0)
    4d70:	245e                	lhu	a5,12(s0)
    4d72:	0087e793          	ori	a5,a5,8
    4d76:	a45e                	sh	a5,12(s0)
    4d78:	481c                	lw	a5,16(s0)
    4d7a:	eb99                	bnez	a5,4d90 <__swsetup_r+0xc4>
    4d7c:	245e                	lhu	a5,12(s0)
    4d7e:	20000713          	li	a4,512
    4d82:	2807f793          	andi	a5,a5,640
    4d86:	00e78563          	beq	a5,a4,4d90 <__swsetup_r+0xc4>
    4d8a:	85a2                	mv	a1,s0
    4d8c:	854a                	mv	a0,s2
    4d8e:	2981                	jal	51de <__smakebuf_r>
    4d90:	245e                	lhu	a5,12(s0)
    4d92:	0017f713          	andi	a4,a5,1
    4d96:	c31d                	beqz	a4,4dbc <__swsetup_r+0xf0>
    4d98:	485c                	lw	a5,20(s0)
    4d9a:	00042423          	sw	zero,8(s0)
    4d9e:	40f007b3          	neg	a5,a5
    4da2:	cc1c                	sw	a5,24(s0)
    4da4:	481c                	lw	a5,16(s0)
    4da6:	4501                	li	a0,0
    4da8:	fbb5                	bnez	a5,4d1c <__swsetup_r+0x50>
    4daa:	00c41783          	lh	a5,12(s0)
    4dae:	0807f713          	andi	a4,a5,128
    4db2:	d72d                	beqz	a4,4d1c <__swsetup_r+0x50>
    4db4:	0407e793          	ori	a5,a5,64
    4db8:	a45e                	sh	a5,12(s0)
    4dba:	b785                	j	4d1a <__swsetup_r+0x4e>
    4dbc:	8b89                	andi	a5,a5,2
    4dbe:	4701                	li	a4,0
    4dc0:	e391                	bnez	a5,4dc4 <__swsetup_r+0xf8>
    4dc2:	4858                	lw	a4,20(s0)
    4dc4:	c418                	sw	a4,8(s0)
    4dc6:	bff9                	j	4da4 <__swsetup_r+0xd8>

00004dc8 <__sflush_r>:
    4dc8:	25de                	lhu	a5,12(a1)
    4dca:	1101                	addi	sp,sp,-32
    4dcc:	cc22                	sw	s0,24(sp)
    4dce:	ca26                	sw	s1,20(sp)
    4dd0:	ce06                	sw	ra,28(sp)
    4dd2:	c84a                	sw	s2,16(sp)
    4dd4:	c64e                	sw	s3,12(sp)
    4dd6:	0087f713          	andi	a4,a5,8
    4dda:	84aa                	mv	s1,a0
    4ddc:	842e                	mv	s0,a1
    4dde:	eb79                	bnez	a4,4eb4 <__sflush_r+0xec>
    4de0:	41d8                	lw	a4,4(a1)
    4de2:	00e04d63          	bgtz	a4,4dfc <__sflush_r+0x34>
    4de6:	41b8                	lw	a4,64(a1)
    4de8:	00e04a63          	bgtz	a4,4dfc <__sflush_r+0x34>
    4dec:	4501                	li	a0,0
    4dee:	40f2                	lw	ra,28(sp)
    4df0:	4462                	lw	s0,24(sp)
    4df2:	44d2                	lw	s1,20(sp)
    4df4:	4942                	lw	s2,16(sp)
    4df6:	49b2                	lw	s3,12(sp)
    4df8:	6105                	addi	sp,sp,32
    4dfa:	8082                	ret
    4dfc:	5458                	lw	a4,44(s0)
    4dfe:	d77d                	beqz	a4,4dec <__sflush_r+0x24>
    4e00:	0004a903          	lw	s2,0(s1)
    4e04:	01379693          	slli	a3,a5,0x13
    4e08:	0004a023          	sw	zero,0(s1)
    4e0c:	0606db63          	bgez	a3,4e82 <__sflush_r+0xba>
    4e10:	4870                	lw	a2,84(s0)
    4e12:	245e                	lhu	a5,12(s0)
    4e14:	8b91                	andi	a5,a5,4
    4e16:	c799                	beqz	a5,4e24 <__sflush_r+0x5c>
    4e18:	405c                	lw	a5,4(s0)
    4e1a:	8e1d                	sub	a2,a2,a5
    4e1c:	585c                	lw	a5,52(s0)
    4e1e:	c399                	beqz	a5,4e24 <__sflush_r+0x5c>
    4e20:	403c                	lw	a5,64(s0)
    4e22:	8e1d                	sub	a2,a2,a5
    4e24:	545c                	lw	a5,44(s0)
    4e26:	500c                	lw	a1,32(s0)
    4e28:	4681                	li	a3,0
    4e2a:	8526                	mv	a0,s1
    4e2c:	9782                	jalr	a5
    4e2e:	57fd                	li	a5,-1
    4e30:	245a                	lhu	a4,12(s0)
    4e32:	00f51d63          	bne	a0,a5,4e4c <__sflush_r+0x84>
    4e36:	4094                	lw	a3,0(s1)
    4e38:	47f5                	li	a5,29
    4e3a:	06d7e863          	bltu	a5,a3,4eaa <__sflush_r+0xe2>
    4e3e:	204007b7          	lui	a5,0x20400
    4e42:	0785                	addi	a5,a5,1
    4e44:	00d7d7b3          	srl	a5,a5,a3
    4e48:	8b85                	andi	a5,a5,1
    4e4a:	c3a5                	beqz	a5,4eaa <__sflush_r+0xe2>
    4e4c:	481c                	lw	a5,16(s0)
    4e4e:	00042223          	sw	zero,4(s0)
    4e52:	c01c                	sw	a5,0(s0)
    4e54:	01371793          	slli	a5,a4,0x13
    4e58:	0007d863          	bgez	a5,4e68 <__sflush_r+0xa0>
    4e5c:	57fd                	li	a5,-1
    4e5e:	00f51463          	bne	a0,a5,4e66 <__sflush_r+0x9e>
    4e62:	409c                	lw	a5,0(s1)
    4e64:	e391                	bnez	a5,4e68 <__sflush_r+0xa0>
    4e66:	c868                	sw	a0,84(s0)
    4e68:	584c                	lw	a1,52(s0)
    4e6a:	0124a023          	sw	s2,0(s1)
    4e6e:	ddbd                	beqz	a1,4dec <__sflush_r+0x24>
    4e70:	04440793          	addi	a5,s0,68
    4e74:	00f58463          	beq	a1,a5,4e7c <__sflush_r+0xb4>
    4e78:	8526                	mv	a0,s1
    4e7a:	2ed5                	jal	526e <_free_r>
    4e7c:	02042a23          	sw	zero,52(s0)
    4e80:	b7b5                	j	4dec <__sflush_r+0x24>
    4e82:	500c                	lw	a1,32(s0)
    4e84:	4601                	li	a2,0
    4e86:	4685                	li	a3,1
    4e88:	8526                	mv	a0,s1
    4e8a:	9702                	jalr	a4
    4e8c:	57fd                	li	a5,-1
    4e8e:	862a                	mv	a2,a0
    4e90:	f8f511e3          	bne	a0,a5,4e12 <__sflush_r+0x4a>
    4e94:	409c                	lw	a5,0(s1)
    4e96:	dfb5                	beqz	a5,4e12 <__sflush_r+0x4a>
    4e98:	4775                	li	a4,29
    4e9a:	00e78563          	beq	a5,a4,4ea4 <__sflush_r+0xdc>
    4e9e:	4759                	li	a4,22
    4ea0:	04e79363          	bne	a5,a4,4ee6 <__sflush_r+0x11e>
    4ea4:	0124a023          	sw	s2,0(s1)
    4ea8:	b791                	j	4dec <__sflush_r+0x24>
    4eaa:	04076713          	ori	a4,a4,64
    4eae:	a45a                	sh	a4,12(s0)
    4eb0:	557d                	li	a0,-1
    4eb2:	bf35                	j	4dee <__sflush_r+0x26>
    4eb4:	0105a983          	lw	s3,16(a1) # 330010 <_data_lma+0x32a10c>
    4eb8:	f2098ae3          	beqz	s3,4dec <__sflush_r+0x24>
    4ebc:	0005a903          	lw	s2,0(a1)
    4ec0:	8b8d                	andi	a5,a5,3
    4ec2:	0135a023          	sw	s3,0(a1)
    4ec6:	41390933          	sub	s2,s2,s3
    4eca:	4701                	li	a4,0
    4ecc:	e391                	bnez	a5,4ed0 <__sflush_r+0x108>
    4ece:	49d8                	lw	a4,20(a1)
    4ed0:	c418                	sw	a4,8(s0)
    4ed2:	f1205de3          	blez	s2,4dec <__sflush_r+0x24>
    4ed6:	541c                	lw	a5,40(s0)
    4ed8:	500c                	lw	a1,32(s0)
    4eda:	86ca                	mv	a3,s2
    4edc:	864e                	mv	a2,s3
    4ede:	8526                	mv	a0,s1
    4ee0:	9782                	jalr	a5
    4ee2:	00a04763          	bgtz	a0,4ef0 <__sflush_r+0x128>
    4ee6:	245e                	lhu	a5,12(s0)
    4ee8:	0407e793          	ori	a5,a5,64
    4eec:	a45e                	sh	a5,12(s0)
    4eee:	b7c9                	j	4eb0 <__sflush_r+0xe8>
    4ef0:	99aa                	add	s3,s3,a0
    4ef2:	40a90933          	sub	s2,s2,a0
    4ef6:	bff1                	j	4ed2 <__sflush_r+0x10a>

00004ef8 <_fflush_r>:
    4ef8:	499c                	lw	a5,16(a1)
    4efa:	cfb9                	beqz	a5,4f58 <_fflush_r+0x60>
    4efc:	1101                	addi	sp,sp,-32
    4efe:	cc22                	sw	s0,24(sp)
    4f00:	ce06                	sw	ra,28(sp)
    4f02:	842a                	mv	s0,a0
    4f04:	c511                	beqz	a0,4f10 <_fflush_r+0x18>
    4f06:	4d1c                	lw	a5,24(a0)
    4f08:	e781                	bnez	a5,4f10 <_fflush_r+0x18>
    4f0a:	c62e                	sw	a1,12(sp)
    4f0c:	2219                	jal	5012 <__sinit>
    4f0e:	45b2                	lw	a1,12(sp)
    4f10:	00001797          	auipc	a5,0x1
    4f14:	f7478793          	addi	a5,a5,-140 # 5e84 <__sf_fake_stdin>
    4f18:	00f59b63          	bne	a1,a5,4f2e <_fflush_r+0x36>
    4f1c:	404c                	lw	a1,4(s0)
    4f1e:	00c59783          	lh	a5,12(a1)
    4f22:	c795                	beqz	a5,4f4e <_fflush_r+0x56>
    4f24:	8522                	mv	a0,s0
    4f26:	4462                	lw	s0,24(sp)
    4f28:	40f2                	lw	ra,28(sp)
    4f2a:	6105                	addi	sp,sp,32
    4f2c:	bd71                	j	4dc8 <__sflush_r>
    4f2e:	00001797          	auipc	a5,0x1
    4f32:	f7678793          	addi	a5,a5,-138 # 5ea4 <__sf_fake_stdout>
    4f36:	00f59463          	bne	a1,a5,4f3e <_fflush_r+0x46>
    4f3a:	440c                	lw	a1,8(s0)
    4f3c:	b7cd                	j	4f1e <_fflush_r+0x26>
    4f3e:	00001797          	auipc	a5,0x1
    4f42:	f2678793          	addi	a5,a5,-218 # 5e64 <__sf_fake_stderr>
    4f46:	fcf59ce3          	bne	a1,a5,4f1e <_fflush_r+0x26>
    4f4a:	444c                	lw	a1,12(s0)
    4f4c:	bfc9                	j	4f1e <_fflush_r+0x26>
    4f4e:	40f2                	lw	ra,28(sp)
    4f50:	4462                	lw	s0,24(sp)
    4f52:	4501                	li	a0,0
    4f54:	6105                	addi	sp,sp,32
    4f56:	8082                	ret
    4f58:	4501                	li	a0,0
    4f5a:	8082                	ret

00004f5c <std>:
    4f5c:	1141                	addi	sp,sp,-16
    4f5e:	c422                	sw	s0,8(sp)
    4f60:	c606                	sw	ra,12(sp)
    4f62:	842a                	mv	s0,a0
    4f64:	a54e                	sh	a1,12(a0)
    4f66:	a572                	sh	a2,14(a0)
    4f68:	00052023          	sw	zero,0(a0)
    4f6c:	00052223          	sw	zero,4(a0)
    4f70:	00052423          	sw	zero,8(a0)
    4f74:	06052223          	sw	zero,100(a0)
    4f78:	00052823          	sw	zero,16(a0)
    4f7c:	00052a23          	sw	zero,20(a0)
    4f80:	00052c23          	sw	zero,24(a0)
    4f84:	4621                	li	a2,8
    4f86:	4581                	li	a1,0
    4f88:	05c50513          	addi	a0,a0,92
    4f8c:	abfff0ef          	jal	ra,4a4a <memset>
    4f90:	00001797          	auipc	a5,0x1
    4f94:	b2678793          	addi	a5,a5,-1242 # 5ab6 <__sread>
    4f98:	d05c                	sw	a5,36(s0)
    4f9a:	00001797          	auipc	a5,0x1
    4f9e:	b4878793          	addi	a5,a5,-1208 # 5ae2 <__swrite>
    4fa2:	d41c                	sw	a5,40(s0)
    4fa4:	00001797          	auipc	a5,0x1
    4fa8:	b8678793          	addi	a5,a5,-1146 # 5b2a <__sseek>
    4fac:	d45c                	sw	a5,44(s0)
    4fae:	00001797          	auipc	a5,0x1
    4fb2:	bac78793          	addi	a5,a5,-1108 # 5b5a <__sclose>
    4fb6:	d000                	sw	s0,32(s0)
    4fb8:	d81c                	sw	a5,48(s0)
    4fba:	40b2                	lw	ra,12(sp)
    4fbc:	4422                	lw	s0,8(sp)
    4fbe:	0141                	addi	sp,sp,16
    4fc0:	8082                	ret

00004fc2 <_cleanup_r>:
    4fc2:	00000597          	auipc	a1,0x0
    4fc6:	f3658593          	addi	a1,a1,-202 # 4ef8 <_fflush_r>
    4fca:	aa89                	j	511c <_fwalk_reent>

00004fcc <__sfmoreglue>:
    4fcc:	1141                	addi	sp,sp,-16
    4fce:	c226                	sw	s1,4(sp)
    4fd0:	06800613          	li	a2,104
    4fd4:	fff58493          	addi	s1,a1,-1
    4fd8:	02c484b3          	mul	s1,s1,a2
    4fdc:	c04a                	sw	s2,0(sp)
    4fde:	892e                	mv	s2,a1
    4fe0:	c422                	sw	s0,8(sp)
    4fe2:	c606                	sw	ra,12(sp)
    4fe4:	07448593          	addi	a1,s1,116
    4fe8:	263d                	jal	5316 <_malloc_r>
    4fea:	842a                	mv	s0,a0
    4fec:	cd01                	beqz	a0,5004 <__sfmoreglue+0x38>
    4fee:	00052023          	sw	zero,0(a0)
    4ff2:	01252223          	sw	s2,4(a0)
    4ff6:	0531                	addi	a0,a0,12
    4ff8:	c408                	sw	a0,8(s0)
    4ffa:	06848613          	addi	a2,s1,104
    4ffe:	4581                	li	a1,0
    5000:	a4bff0ef          	jal	ra,4a4a <memset>
    5004:	8522                	mv	a0,s0
    5006:	40b2                	lw	ra,12(sp)
    5008:	4422                	lw	s0,8(sp)
    500a:	4492                	lw	s1,4(sp)
    500c:	4902                	lw	s2,0(sp)
    500e:	0141                	addi	sp,sp,16
    5010:	8082                	ret

00005012 <__sinit>:
    5012:	4d1c                	lw	a5,24(a0)
    5014:	e3bd                	bnez	a5,507a <__sinit+0x68>
    5016:	1141                	addi	sp,sp,-16
    5018:	c606                	sw	ra,12(sp)
    501a:	c422                	sw	s0,8(sp)
    501c:	00000797          	auipc	a5,0x0
    5020:	fa678793          	addi	a5,a5,-90 # 4fc2 <_cleanup_r>
    5024:	d51c                	sw	a5,40(a0)
    5026:	00001797          	auipc	a5,0x1
    502a:	eda78793          	addi	a5,a5,-294 # 5f00 <_global_impure_ptr>
    502e:	439c                	lw	a5,0(a5)
    5030:	04052423          	sw	zero,72(a0)
    5034:	04052623          	sw	zero,76(a0)
    5038:	04052823          	sw	zero,80(a0)
    503c:	00f51463          	bne	a0,a5,5044 <__sinit+0x32>
    5040:	4785                	li	a5,1
    5042:	cd1c                	sw	a5,24(a0)
    5044:	842a                	mv	s0,a0
    5046:	281d                	jal	507c <__sfp>
    5048:	c048                	sw	a0,4(s0)
    504a:	8522                	mv	a0,s0
    504c:	2805                	jal	507c <__sfp>
    504e:	c408                	sw	a0,8(s0)
    5050:	8522                	mv	a0,s0
    5052:	202d                	jal	507c <__sfp>
    5054:	c448                	sw	a0,12(s0)
    5056:	4048                	lw	a0,4(s0)
    5058:	4601                	li	a2,0
    505a:	4591                	li	a1,4
    505c:	3701                	jal	4f5c <std>
    505e:	4408                	lw	a0,8(s0)
    5060:	4605                	li	a2,1
    5062:	45a5                	li	a1,9
    5064:	3de5                	jal	4f5c <std>
    5066:	4448                	lw	a0,12(s0)
    5068:	4609                	li	a2,2
    506a:	45c9                	li	a1,18
    506c:	3dc5                	jal	4f5c <std>
    506e:	4785                	li	a5,1
    5070:	cc1c                	sw	a5,24(s0)
    5072:	40b2                	lw	ra,12(sp)
    5074:	4422                	lw	s0,8(sp)
    5076:	0141                	addi	sp,sp,16
    5078:	8082                	ret
    507a:	8082                	ret

0000507c <__sfp>:
    507c:	1141                	addi	sp,sp,-16
    507e:	00001797          	auipc	a5,0x1
    5082:	e8278793          	addi	a5,a5,-382 # 5f00 <_global_impure_ptr>
    5086:	c226                	sw	s1,4(sp)
    5088:	4384                	lw	s1,0(a5)
    508a:	c04a                	sw	s2,0(sp)
    508c:	c606                	sw	ra,12(sp)
    508e:	4c9c                	lw	a5,24(s1)
    5090:	c422                	sw	s0,8(sp)
    5092:	892a                	mv	s2,a0
    5094:	e399                	bnez	a5,509a <__sfp+0x1e>
    5096:	8526                	mv	a0,s1
    5098:	3fad                	jal	5012 <__sinit>
    509a:	04848493          	addi	s1,s1,72
    509e:	4480                	lw	s0,8(s1)
    50a0:	40dc                	lw	a5,4(s1)
    50a2:	17fd                	addi	a5,a5,-1
    50a4:	0007d663          	bgez	a5,50b0 <__sfp+0x34>
    50a8:	409c                	lw	a5,0(s1)
    50aa:	cfb9                	beqz	a5,5108 <__sfp+0x8c>
    50ac:	4084                	lw	s1,0(s1)
    50ae:	bfc5                	j	509e <__sfp+0x22>
    50b0:	00c41703          	lh	a4,12(s0)
    50b4:	e739                	bnez	a4,5102 <__sfp+0x86>
    50b6:	77c1                	lui	a5,0xffff0
    50b8:	0785                	addi	a5,a5,1
    50ba:	06042223          	sw	zero,100(s0)
    50be:	00042023          	sw	zero,0(s0)
    50c2:	00042223          	sw	zero,4(s0)
    50c6:	00042423          	sw	zero,8(s0)
    50ca:	c45c                	sw	a5,12(s0)
    50cc:	00042823          	sw	zero,16(s0)
    50d0:	00042a23          	sw	zero,20(s0)
    50d4:	00042c23          	sw	zero,24(s0)
    50d8:	4621                	li	a2,8
    50da:	4581                	li	a1,0
    50dc:	05c40513          	addi	a0,s0,92
    50e0:	96bff0ef          	jal	ra,4a4a <memset>
    50e4:	02042a23          	sw	zero,52(s0)
    50e8:	02042c23          	sw	zero,56(s0)
    50ec:	04042423          	sw	zero,72(s0)
    50f0:	04042623          	sw	zero,76(s0)
    50f4:	8522                	mv	a0,s0
    50f6:	40b2                	lw	ra,12(sp)
    50f8:	4422                	lw	s0,8(sp)
    50fa:	4492                	lw	s1,4(sp)
    50fc:	4902                	lw	s2,0(sp)
    50fe:	0141                	addi	sp,sp,16
    5100:	8082                	ret
    5102:	06840413          	addi	s0,s0,104
    5106:	bf71                	j	50a2 <__sfp+0x26>
    5108:	4591                	li	a1,4
    510a:	854a                	mv	a0,s2
    510c:	35c1                	jal	4fcc <__sfmoreglue>
    510e:	c088                	sw	a0,0(s1)
    5110:	fd51                	bnez	a0,50ac <__sfp+0x30>
    5112:	47b1                	li	a5,12
    5114:	00f92023          	sw	a5,0(s2)
    5118:	4401                	li	s0,0
    511a:	bfe9                	j	50f4 <__sfp+0x78>

0000511c <_fwalk_reent>:
    511c:	7179                	addi	sp,sp,-48
    511e:	d422                	sw	s0,40(sp)
    5120:	d04a                	sw	s2,32(sp)
    5122:	cc52                	sw	s4,24(sp)
    5124:	ca56                	sw	s5,20(sp)
    5126:	c85a                	sw	s6,16(sp)
    5128:	c65e                	sw	s7,12(sp)
    512a:	d606                	sw	ra,44(sp)
    512c:	d226                	sw	s1,36(sp)
    512e:	ce4e                	sw	s3,28(sp)
    5130:	8a2a                	mv	s4,a0
    5132:	8aae                	mv	s5,a1
    5134:	04850413          	addi	s0,a0,72
    5138:	4901                	li	s2,0
    513a:	4b05                	li	s6,1
    513c:	5bfd                	li	s7,-1
    513e:	ec09                	bnez	s0,5158 <_fwalk_reent+0x3c>
    5140:	50b2                	lw	ra,44(sp)
    5142:	5422                	lw	s0,40(sp)
    5144:	854a                	mv	a0,s2
    5146:	5492                	lw	s1,36(sp)
    5148:	5902                	lw	s2,32(sp)
    514a:	49f2                	lw	s3,28(sp)
    514c:	4a62                	lw	s4,24(sp)
    514e:	4ad2                	lw	s5,20(sp)
    5150:	4b42                	lw	s6,16(sp)
    5152:	4bb2                	lw	s7,12(sp)
    5154:	6145                	addi	sp,sp,48
    5156:	8082                	ret
    5158:	4404                	lw	s1,8(s0)
    515a:	00442983          	lw	s3,4(s0)
    515e:	19fd                	addi	s3,s3,-1
    5160:	0009d463          	bgez	s3,5168 <_fwalk_reent+0x4c>
    5164:	4000                	lw	s0,0(s0)
    5166:	bfe1                	j	513e <_fwalk_reent+0x22>
    5168:	24de                	lhu	a5,12(s1)
    516a:	00fb7b63          	bgeu	s6,a5,5180 <_fwalk_reent+0x64>
    516e:	00e49783          	lh	a5,14(s1)
    5172:	01778763          	beq	a5,s7,5180 <_fwalk_reent+0x64>
    5176:	85a6                	mv	a1,s1
    5178:	8552                	mv	a0,s4
    517a:	9a82                	jalr	s5
    517c:	00a96933          	or	s2,s2,a0
    5180:	06848493          	addi	s1,s1,104
    5184:	bfe9                	j	515e <_fwalk_reent+0x42>

00005186 <__swhatbuf_r>:
    5186:	7119                	addi	sp,sp,-128
    5188:	daa6                	sw	s1,116(sp)
    518a:	84ae                	mv	s1,a1
    518c:	00e59583          	lh	a1,14(a1)
    5190:	dca2                	sw	s0,120(sp)
    5192:	de86                	sw	ra,124(sp)
    5194:	8432                	mv	s0,a2
    5196:	0005db63          	bgez	a1,51ac <__swhatbuf_r+0x26>
    519a:	24de                	lhu	a5,12(s1)
    519c:	0006a023          	sw	zero,0(a3)
    51a0:	0807f793          	andi	a5,a5,128
    51a4:	e785                	bnez	a5,51cc <__swhatbuf_r+0x46>
    51a6:	40000793          	li	a5,1024
    51aa:	a01d                	j	51d0 <__swhatbuf_r+0x4a>
    51ac:	0830                	addi	a2,sp,24
    51ae:	c636                	sw	a3,12(sp)
    51b0:	217000ef          	jal	ra,5bc6 <_fstat_r>
    51b4:	46b2                	lw	a3,12(sp)
    51b6:	fe0542e3          	bltz	a0,519a <__swhatbuf_r+0x14>
    51ba:	4772                	lw	a4,28(sp)
    51bc:	67bd                	lui	a5,0xf
    51be:	8ff9                	and	a5,a5,a4
    51c0:	7779                	lui	a4,0xffffe
    51c2:	97ba                	add	a5,a5,a4
    51c4:	0017b793          	seqz	a5,a5
    51c8:	c29c                	sw	a5,0(a3)
    51ca:	bff1                	j	51a6 <__swhatbuf_r+0x20>
    51cc:	04000793          	li	a5,64
    51d0:	c01c                	sw	a5,0(s0)
    51d2:	50f6                	lw	ra,124(sp)
    51d4:	5466                	lw	s0,120(sp)
    51d6:	54d6                	lw	s1,116(sp)
    51d8:	4501                	li	a0,0
    51da:	6109                	addi	sp,sp,128
    51dc:	8082                	ret

000051de <__smakebuf_r>:
    51de:	25de                	lhu	a5,12(a1)
    51e0:	1101                	addi	sp,sp,-32
    51e2:	cc22                	sw	s0,24(sp)
    51e4:	ce06                	sw	ra,28(sp)
    51e6:	ca26                	sw	s1,20(sp)
    51e8:	c84a                	sw	s2,16(sp)
    51ea:	8b89                	andi	a5,a5,2
    51ec:	842e                	mv	s0,a1
    51ee:	cf89                	beqz	a5,5208 <__smakebuf_r+0x2a>
    51f0:	04740793          	addi	a5,s0,71
    51f4:	c01c                	sw	a5,0(s0)
    51f6:	c81c                	sw	a5,16(s0)
    51f8:	4785                	li	a5,1
    51fa:	c85c                	sw	a5,20(s0)
    51fc:	40f2                	lw	ra,28(sp)
    51fe:	4462                	lw	s0,24(sp)
    5200:	44d2                	lw	s1,20(sp)
    5202:	4942                	lw	s2,16(sp)
    5204:	6105                	addi	sp,sp,32
    5206:	8082                	ret
    5208:	0074                	addi	a3,sp,12
    520a:	0030                	addi	a2,sp,8
    520c:	84aa                	mv	s1,a0
    520e:	3fa5                	jal	5186 <__swhatbuf_r>
    5210:	45a2                	lw	a1,8(sp)
    5212:	892a                	mv	s2,a0
    5214:	8526                	mv	a0,s1
    5216:	2201                	jal	5316 <_malloc_r>
    5218:	e919                	bnez	a0,522e <__smakebuf_r+0x50>
    521a:	00c41783          	lh	a5,12(s0)
    521e:	2007f713          	andi	a4,a5,512
    5222:	ff69                	bnez	a4,51fc <__smakebuf_r+0x1e>
    5224:	9bf1                	andi	a5,a5,-4
    5226:	0027e793          	ori	a5,a5,2
    522a:	a45e                	sh	a5,12(s0)
    522c:	b7d1                	j	51f0 <__smakebuf_r+0x12>
    522e:	00000797          	auipc	a5,0x0
    5232:	d9478793          	addi	a5,a5,-620 # 4fc2 <_cleanup_r>
    5236:	d49c                	sw	a5,40(s1)
    5238:	245e                	lhu	a5,12(s0)
    523a:	c008                	sw	a0,0(s0)
    523c:	c808                	sw	a0,16(s0)
    523e:	0807e793          	ori	a5,a5,128
    5242:	a45e                	sh	a5,12(s0)
    5244:	47a2                	lw	a5,8(sp)
    5246:	c85c                	sw	a5,20(s0)
    5248:	47b2                	lw	a5,12(sp)
    524a:	cf81                	beqz	a5,5262 <__smakebuf_r+0x84>
    524c:	00e41583          	lh	a1,14(s0)
    5250:	8526                	mv	a0,s1
    5252:	1a7000ef          	jal	ra,5bf8 <_isatty_r>
    5256:	c511                	beqz	a0,5262 <__smakebuf_r+0x84>
    5258:	245e                	lhu	a5,12(s0)
    525a:	9bf1                	andi	a5,a5,-4
    525c:	0017e793          	ori	a5,a5,1
    5260:	a45e                	sh	a5,12(s0)
    5262:	245e                	lhu	a5,12(s0)
    5264:	00f96933          	or	s2,s2,a5
    5268:	01241623          	sh	s2,12(s0)
    526c:	bf41                	j	51fc <__smakebuf_r+0x1e>

0000526e <_free_r>:
    526e:	c1dd                	beqz	a1,5314 <_free_r+0xa6>
    5270:	ffc5a783          	lw	a5,-4(a1)
    5274:	1141                	addi	sp,sp,-16
    5276:	c422                	sw	s0,8(sp)
    5278:	c606                	sw	ra,12(sp)
    527a:	c226                	sw	s1,4(sp)
    527c:	ffc58413          	addi	s0,a1,-4
    5280:	0007d363          	bgez	a5,5286 <_free_r+0x18>
    5284:	943e                	add	s0,s0,a5
    5286:	84aa                	mv	s1,a0
    5288:	1ed000ef          	jal	ra,5c74 <__malloc_lock>
    528c:	81c18793          	addi	a5,gp,-2020 # 2000008c <__malloc_free_list>
    5290:	439c                	lw	a5,0(a5)
    5292:	ef81                	bnez	a5,52aa <_free_r+0x3c>
    5294:	00042223          	sw	zero,4(s0)
    5298:	8081ae23          	sw	s0,-2020(gp) # 2000008c <__malloc_free_list>
    529c:	4422                	lw	s0,8(sp)
    529e:	40b2                	lw	ra,12(sp)
    52a0:	8526                	mv	a0,s1
    52a2:	4492                	lw	s1,4(sp)
    52a4:	0141                	addi	sp,sp,16
    52a6:	1d10006f          	j	5c76 <__malloc_unlock>
    52aa:	00f47e63          	bgeu	s0,a5,52c6 <_free_r+0x58>
    52ae:	4014                	lw	a3,0(s0)
    52b0:	00d40733          	add	a4,s0,a3
    52b4:	00e79663          	bne	a5,a4,52c0 <_free_r+0x52>
    52b8:	4398                	lw	a4,0(a5)
    52ba:	43dc                	lw	a5,4(a5)
    52bc:	9736                	add	a4,a4,a3
    52be:	c018                	sw	a4,0(s0)
    52c0:	c05c                	sw	a5,4(s0)
    52c2:	bfd9                	j	5298 <_free_r+0x2a>
    52c4:	87ba                	mv	a5,a4
    52c6:	43d8                	lw	a4,4(a5)
    52c8:	c319                	beqz	a4,52ce <_free_r+0x60>
    52ca:	fee47de3          	bgeu	s0,a4,52c4 <_free_r+0x56>
    52ce:	4394                	lw	a3,0(a5)
    52d0:	00d78633          	add	a2,a5,a3
    52d4:	00861f63          	bne	a2,s0,52f2 <_free_r+0x84>
    52d8:	4010                	lw	a2,0(s0)
    52da:	96b2                	add	a3,a3,a2
    52dc:	c394                	sw	a3,0(a5)
    52de:	00d78633          	add	a2,a5,a3
    52e2:	fac71de3          	bne	a4,a2,529c <_free_r+0x2e>
    52e6:	4310                	lw	a2,0(a4)
    52e8:	4358                	lw	a4,4(a4)
    52ea:	96b2                	add	a3,a3,a2
    52ec:	c394                	sw	a3,0(a5)
    52ee:	c3d8                	sw	a4,4(a5)
    52f0:	b775                	j	529c <_free_r+0x2e>
    52f2:	00c47563          	bgeu	s0,a2,52fc <_free_r+0x8e>
    52f6:	47b1                	li	a5,12
    52f8:	c09c                	sw	a5,0(s1)
    52fa:	b74d                	j	529c <_free_r+0x2e>
    52fc:	4010                	lw	a2,0(s0)
    52fe:	00c406b3          	add	a3,s0,a2
    5302:	00d71663          	bne	a4,a3,530e <_free_r+0xa0>
    5306:	4314                	lw	a3,0(a4)
    5308:	4358                	lw	a4,4(a4)
    530a:	96b2                	add	a3,a3,a2
    530c:	c014                	sw	a3,0(s0)
    530e:	c058                	sw	a4,4(s0)
    5310:	c3c0                	sw	s0,4(a5)
    5312:	b769                	j	529c <_free_r+0x2e>
    5314:	8082                	ret

00005316 <_malloc_r>:
    5316:	1101                	addi	sp,sp,-32
    5318:	ca26                	sw	s1,20(sp)
    531a:	00358493          	addi	s1,a1,3
    531e:	98f1                	andi	s1,s1,-4
    5320:	ce06                	sw	ra,28(sp)
    5322:	cc22                	sw	s0,24(sp)
    5324:	c84a                	sw	s2,16(sp)
    5326:	c64e                	sw	s3,12(sp)
    5328:	04a1                	addi	s1,s1,8
    532a:	47b1                	li	a5,12
    532c:	04f4f363          	bgeu	s1,a5,5372 <_malloc_r+0x5c>
    5330:	44b1                	li	s1,12
    5332:	04b4e263          	bltu	s1,a1,5376 <_malloc_r+0x60>
    5336:	892a                	mv	s2,a0
    5338:	13d000ef          	jal	ra,5c74 <__malloc_lock>
    533c:	81c18793          	addi	a5,gp,-2020 # 2000008c <__malloc_free_list>
    5340:	4398                	lw	a4,0(a5)
    5342:	843a                	mv	s0,a4
    5344:	e039                	bnez	s0,538a <_malloc_r+0x74>
    5346:	82018793          	addi	a5,gp,-2016 # 20000090 <__malloc_sbrk_start>
    534a:	439c                	lw	a5,0(a5)
    534c:	e791                	bnez	a5,5358 <_malloc_r+0x42>
    534e:	4581                	li	a1,0
    5350:	854a                	mv	a0,s2
    5352:	2f0d                	jal	5a84 <_sbrk_r>
    5354:	82a1a023          	sw	a0,-2016(gp) # 20000090 <__malloc_sbrk_start>
    5358:	85a6                	mv	a1,s1
    535a:	854a                	mv	a0,s2
    535c:	2725                	jal	5a84 <_sbrk_r>
    535e:	59fd                	li	s3,-1
    5360:	07351963          	bne	a0,s3,53d2 <_malloc_r+0xbc>
    5364:	47b1                	li	a5,12
    5366:	00f92023          	sw	a5,0(s2)
    536a:	854a                	mv	a0,s2
    536c:	10b000ef          	jal	ra,5c76 <__malloc_unlock>
    5370:	a029                	j	537a <_malloc_r+0x64>
    5372:	fc04d0e3          	bgez	s1,5332 <_malloc_r+0x1c>
    5376:	47b1                	li	a5,12
    5378:	c11c                	sw	a5,0(a0)
    537a:	4501                	li	a0,0
    537c:	40f2                	lw	ra,28(sp)
    537e:	4462                	lw	s0,24(sp)
    5380:	44d2                	lw	s1,20(sp)
    5382:	4942                	lw	s2,16(sp)
    5384:	49b2                	lw	s3,12(sp)
    5386:	6105                	addi	sp,sp,32
    5388:	8082                	ret
    538a:	401c                	lw	a5,0(s0)
    538c:	8f85                	sub	a5,a5,s1
    538e:	0207cf63          	bltz	a5,53cc <_malloc_r+0xb6>
    5392:	46ad                	li	a3,11
    5394:	00f6f663          	bgeu	a3,a5,53a0 <_malloc_r+0x8a>
    5398:	c01c                	sw	a5,0(s0)
    539a:	943e                	add	s0,s0,a5
    539c:	c004                	sw	s1,0(s0)
    539e:	a031                	j	53aa <_malloc_r+0x94>
    53a0:	405c                	lw	a5,4(s0)
    53a2:	02871363          	bne	a4,s0,53c8 <_malloc_r+0xb2>
    53a6:	80f1ae23          	sw	a5,-2020(gp) # 2000008c <__malloc_free_list>
    53aa:	854a                	mv	a0,s2
    53ac:	0cb000ef          	jal	ra,5c76 <__malloc_unlock>
    53b0:	00b40513          	addi	a0,s0,11
    53b4:	00440793          	addi	a5,s0,4
    53b8:	9961                	andi	a0,a0,-8
    53ba:	40f50733          	sub	a4,a0,a5
    53be:	df5d                	beqz	a4,537c <_malloc_r+0x66>
    53c0:	943a                	add	s0,s0,a4
    53c2:	8f89                	sub	a5,a5,a0
    53c4:	c01c                	sw	a5,0(s0)
    53c6:	bf5d                	j	537c <_malloc_r+0x66>
    53c8:	c35c                	sw	a5,4(a4)
    53ca:	b7c5                	j	53aa <_malloc_r+0x94>
    53cc:	8722                	mv	a4,s0
    53ce:	4040                	lw	s0,4(s0)
    53d0:	bf95                	j	5344 <_malloc_r+0x2e>
    53d2:	00350413          	addi	s0,a0,3
    53d6:	9871                	andi	s0,s0,-4
    53d8:	fc8502e3          	beq	a0,s0,539c <_malloc_r+0x86>
    53dc:	40a405b3          	sub	a1,s0,a0
    53e0:	854a                	mv	a0,s2
    53e2:	254d                	jal	5a84 <_sbrk_r>
    53e4:	fb351ce3          	bne	a0,s3,539c <_malloc_r+0x86>
    53e8:	bfb5                	j	5364 <_malloc_r+0x4e>

000053ea <__sfputc_r>:
    53ea:	461c                	lw	a5,8(a2)
    53ec:	17fd                	addi	a5,a5,-1
    53ee:	c61c                	sw	a5,8(a2)
    53f0:	0007da63          	bgez	a5,5404 <__sfputc_r+0x1a>
    53f4:	4e18                	lw	a4,24(a2)
    53f6:	00e7c563          	blt	a5,a4,5400 <__sfputc_r+0x16>
    53fa:	47a9                	li	a5,10
    53fc:	00f59463          	bne	a1,a5,5404 <__sfputc_r+0x1a>
    5400:	811ff06f          	j	4c10 <__swbuf_r>
    5404:	421c                	lw	a5,0(a2)
    5406:	852e                	mv	a0,a1
    5408:	00178713          	addi	a4,a5,1
    540c:	c218                	sw	a4,0(a2)
    540e:	a38c                	sb	a1,0(a5)
    5410:	8082                	ret

00005412 <__sfputs_r>:
    5412:	1101                	addi	sp,sp,-32
    5414:	cc22                	sw	s0,24(sp)
    5416:	ca26                	sw	s1,20(sp)
    5418:	c84a                	sw	s2,16(sp)
    541a:	c64e                	sw	s3,12(sp)
    541c:	c452                	sw	s4,8(sp)
    541e:	ce06                	sw	ra,28(sp)
    5420:	892a                	mv	s2,a0
    5422:	89ae                	mv	s3,a1
    5424:	8432                	mv	s0,a2
    5426:	00d604b3          	add	s1,a2,a3
    542a:	5a7d                	li	s4,-1
    542c:	00941463          	bne	s0,s1,5434 <__sfputs_r+0x22>
    5430:	4501                	li	a0,0
    5432:	a801                	j	5442 <__sfputs_r+0x30>
    5434:	200c                	lbu	a1,0(s0)
    5436:	864e                	mv	a2,s3
    5438:	854a                	mv	a0,s2
    543a:	3f45                	jal	53ea <__sfputc_r>
    543c:	0405                	addi	s0,s0,1
    543e:	ff4517e3          	bne	a0,s4,542c <__sfputs_r+0x1a>
    5442:	40f2                	lw	ra,28(sp)
    5444:	4462                	lw	s0,24(sp)
    5446:	44d2                	lw	s1,20(sp)
    5448:	4942                	lw	s2,16(sp)
    544a:	49b2                	lw	s3,12(sp)
    544c:	4a22                	lw	s4,8(sp)
    544e:	6105                	addi	sp,sp,32
    5450:	8082                	ret

00005452 <_vfiprintf_r>:
    5452:	7135                	addi	sp,sp,-160
    5454:	cd22                	sw	s0,152(sp)
    5456:	cb26                	sw	s1,148(sp)
    5458:	c94a                	sw	s2,144(sp)
    545a:	c74e                	sw	s3,140(sp)
    545c:	cf06                	sw	ra,156(sp)
    545e:	c552                	sw	s4,136(sp)
    5460:	c356                	sw	s5,132(sp)
    5462:	c15a                	sw	s6,128(sp)
    5464:	dede                	sw	s7,124(sp)
    5466:	dce2                	sw	s8,120(sp)
    5468:	dae6                	sw	s9,116(sp)
    546a:	89aa                	mv	s3,a0
    546c:	84ae                	mv	s1,a1
    546e:	8932                	mv	s2,a2
    5470:	8436                	mv	s0,a3
    5472:	c509                	beqz	a0,547c <_vfiprintf_r+0x2a>
    5474:	4d1c                	lw	a5,24(a0)
    5476:	e399                	bnez	a5,547c <_vfiprintf_r+0x2a>
    5478:	b9bff0ef          	jal	ra,5012 <__sinit>
    547c:	00001797          	auipc	a5,0x1
    5480:	a0878793          	addi	a5,a5,-1528 # 5e84 <__sf_fake_stdin>
    5484:	0cf49763          	bne	s1,a5,5552 <_vfiprintf_r+0x100>
    5488:	0049a483          	lw	s1,4(s3)
    548c:	24de                	lhu	a5,12(s1)
    548e:	8ba1                	andi	a5,a5,8
    5490:	c3fd                	beqz	a5,5576 <_vfiprintf_r+0x124>
    5492:	489c                	lw	a5,16(s1)
    5494:	c3ed                	beqz	a5,5576 <_vfiprintf_r+0x124>
    5496:	02000793          	li	a5,32
    549a:	02f104a3          	sb	a5,41(sp)
    549e:	03000793          	li	a5,48
    54a2:	d202                	sw	zero,36(sp)
    54a4:	02f10523          	sb	a5,42(sp)
    54a8:	c622                	sw	s0,12(sp)
    54aa:	02500b93          	li	s7,37
    54ae:	00001a97          	auipc	s5,0x1
    54b2:	a16a8a93          	addi	s5,s5,-1514 # 5ec4 <__sf_fake_stdout+0x20>
    54b6:	4c05                	li	s8,1
    54b8:	4b29                	li	s6,10
    54ba:	844a                	mv	s0,s2
    54bc:	201c                	lbu	a5,0(s0)
    54be:	c399                	beqz	a5,54c4 <_vfiprintf_r+0x72>
    54c0:	0d779e63          	bne	a5,s7,559c <_vfiprintf_r+0x14a>
    54c4:	41240cb3          	sub	s9,s0,s2
    54c8:	000c8d63          	beqz	s9,54e2 <_vfiprintf_r+0x90>
    54cc:	86e6                	mv	a3,s9
    54ce:	864a                	mv	a2,s2
    54d0:	85a6                	mv	a1,s1
    54d2:	854e                	mv	a0,s3
    54d4:	3f3d                	jal	5412 <__sfputs_r>
    54d6:	57fd                	li	a5,-1
    54d8:	1cf50f63          	beq	a0,a5,56b6 <_vfiprintf_r+0x264>
    54dc:	5692                	lw	a3,36(sp)
    54de:	96e6                	add	a3,a3,s9
    54e0:	d236                	sw	a3,36(sp)
    54e2:	201c                	lbu	a5,0(s0)
    54e4:	1c078963          	beqz	a5,56b6 <_vfiprintf_r+0x264>
    54e8:	57fd                	li	a5,-1
    54ea:	00140913          	addi	s2,s0,1
    54ee:	c802                	sw	zero,16(sp)
    54f0:	ce02                	sw	zero,28(sp)
    54f2:	ca3e                	sw	a5,20(sp)
    54f4:	cc02                	sw	zero,24(sp)
    54f6:	040109a3          	sb	zero,83(sp)
    54fa:	d482                	sw	zero,104(sp)
    54fc:	00094583          	lbu	a1,0(s2)
    5500:	4615                	li	a2,5
    5502:	8556                	mv	a0,s5
    5504:	2fa1                	jal	5c5c <memchr>
    5506:	00190413          	addi	s0,s2,1
    550a:	47c2                	lw	a5,16(sp)
    550c:	e951                	bnez	a0,55a0 <_vfiprintf_r+0x14e>
    550e:	0107f713          	andi	a4,a5,16
    5512:	c709                	beqz	a4,551c <_vfiprintf_r+0xca>
    5514:	02000713          	li	a4,32
    5518:	04e109a3          	sb	a4,83(sp)
    551c:	0087f713          	andi	a4,a5,8
    5520:	c709                	beqz	a4,552a <_vfiprintf_r+0xd8>
    5522:	02b00713          	li	a4,43
    5526:	04e109a3          	sb	a4,83(sp)
    552a:	00094683          	lbu	a3,0(s2)
    552e:	02a00713          	li	a4,42
    5532:	06e68f63          	beq	a3,a4,55b0 <_vfiprintf_r+0x15e>
    5536:	47f2                	lw	a5,28(sp)
    5538:	844a                	mv	s0,s2
    553a:	4681                	li	a3,0
    553c:	4625                	li	a2,9
    553e:	2018                	lbu	a4,0(s0)
    5540:	00140593          	addi	a1,s0,1
    5544:	fd070713          	addi	a4,a4,-48 # ffffdfd0 <_eusrstack+0xdffedfd0>
    5548:	0ae67763          	bgeu	a2,a4,55f6 <_vfiprintf_r+0x1a4>
    554c:	cab5                	beqz	a3,55c0 <_vfiprintf_r+0x16e>
    554e:	ce3e                	sw	a5,28(sp)
    5550:	a885                	j	55c0 <_vfiprintf_r+0x16e>
    5552:	00001797          	auipc	a5,0x1
    5556:	95278793          	addi	a5,a5,-1710 # 5ea4 <__sf_fake_stdout>
    555a:	00f49563          	bne	s1,a5,5564 <_vfiprintf_r+0x112>
    555e:	0089a483          	lw	s1,8(s3)
    5562:	b72d                	j	548c <_vfiprintf_r+0x3a>
    5564:	00001797          	auipc	a5,0x1
    5568:	90078793          	addi	a5,a5,-1792 # 5e64 <__sf_fake_stderr>
    556c:	f2f490e3          	bne	s1,a5,548c <_vfiprintf_r+0x3a>
    5570:	00c9a483          	lw	s1,12(s3)
    5574:	bf21                	j	548c <_vfiprintf_r+0x3a>
    5576:	85a6                	mv	a1,s1
    5578:	854e                	mv	a0,s3
    557a:	f52ff0ef          	jal	ra,4ccc <__swsetup_r>
    557e:	dd01                	beqz	a0,5496 <_vfiprintf_r+0x44>
    5580:	557d                	li	a0,-1
    5582:	40fa                	lw	ra,156(sp)
    5584:	446a                	lw	s0,152(sp)
    5586:	44da                	lw	s1,148(sp)
    5588:	494a                	lw	s2,144(sp)
    558a:	49ba                	lw	s3,140(sp)
    558c:	4a2a                	lw	s4,136(sp)
    558e:	4a9a                	lw	s5,132(sp)
    5590:	4b0a                	lw	s6,128(sp)
    5592:	5bf6                	lw	s7,124(sp)
    5594:	5c66                	lw	s8,120(sp)
    5596:	5cd6                	lw	s9,116(sp)
    5598:	610d                	addi	sp,sp,160
    559a:	8082                	ret
    559c:	0405                	addi	s0,s0,1
    559e:	bf39                	j	54bc <_vfiprintf_r+0x6a>
    55a0:	41550533          	sub	a0,a0,s5
    55a4:	00ac1533          	sll	a0,s8,a0
    55a8:	8fc9                	or	a5,a5,a0
    55aa:	c83e                	sw	a5,16(sp)
    55ac:	8922                	mv	s2,s0
    55ae:	b7b9                	j	54fc <_vfiprintf_r+0xaa>
    55b0:	4732                	lw	a4,12(sp)
    55b2:	00470693          	addi	a3,a4,4
    55b6:	4318                	lw	a4,0(a4)
    55b8:	c636                	sw	a3,12(sp)
    55ba:	02074763          	bltz	a4,55e8 <_vfiprintf_r+0x196>
    55be:	ce3a                	sw	a4,28(sp)
    55c0:	2018                	lbu	a4,0(s0)
    55c2:	02e00793          	li	a5,46
    55c6:	04f71d63          	bne	a4,a5,5620 <_vfiprintf_r+0x1ce>
    55ca:	3018                	lbu	a4,1(s0)
    55cc:	02a00793          	li	a5,42
    55d0:	02f71b63          	bne	a4,a5,5606 <_vfiprintf_r+0x1b4>
    55d4:	47b2                	lw	a5,12(sp)
    55d6:	0409                	addi	s0,s0,2
    55d8:	00478713          	addi	a4,a5,4
    55dc:	439c                	lw	a5,0(a5)
    55de:	c63a                	sw	a4,12(sp)
    55e0:	0207c163          	bltz	a5,5602 <_vfiprintf_r+0x1b0>
    55e4:	ca3e                	sw	a5,20(sp)
    55e6:	a82d                	j	5620 <_vfiprintf_r+0x1ce>
    55e8:	40e00733          	neg	a4,a4
    55ec:	0027e793          	ori	a5,a5,2
    55f0:	ce3a                	sw	a4,28(sp)
    55f2:	c83e                	sw	a5,16(sp)
    55f4:	b7f1                	j	55c0 <_vfiprintf_r+0x16e>
    55f6:	036787b3          	mul	a5,a5,s6
    55fa:	4685                	li	a3,1
    55fc:	842e                	mv	s0,a1
    55fe:	97ba                	add	a5,a5,a4
    5600:	bf3d                	j	553e <_vfiprintf_r+0xec>
    5602:	57fd                	li	a5,-1
    5604:	b7c5                	j	55e4 <_vfiprintf_r+0x192>
    5606:	0405                	addi	s0,s0,1
    5608:	ca02                	sw	zero,20(sp)
    560a:	4681                	li	a3,0
    560c:	4781                	li	a5,0
    560e:	4625                	li	a2,9
    5610:	2018                	lbu	a4,0(s0)
    5612:	00140593          	addi	a1,s0,1
    5616:	fd070713          	addi	a4,a4,-48
    561a:	06e67463          	bgeu	a2,a4,5682 <_vfiprintf_r+0x230>
    561e:	f2f9                	bnez	a3,55e4 <_vfiprintf_r+0x192>
    5620:	200c                	lbu	a1,0(s0)
    5622:	460d                	li	a2,3
    5624:	00001517          	auipc	a0,0x1
    5628:	8a850513          	addi	a0,a0,-1880 # 5ecc <__sf_fake_stdout+0x28>
    562c:	2d05                	jal	5c5c <memchr>
    562e:	cd11                	beqz	a0,564a <_vfiprintf_r+0x1f8>
    5630:	00001797          	auipc	a5,0x1
    5634:	89c78793          	addi	a5,a5,-1892 # 5ecc <__sf_fake_stdout+0x28>
    5638:	8d1d                	sub	a0,a0,a5
    563a:	04000793          	li	a5,64
    563e:	00a797b3          	sll	a5,a5,a0
    5642:	4542                	lw	a0,16(sp)
    5644:	0405                	addi	s0,s0,1
    5646:	8d5d                	or	a0,a0,a5
    5648:	c82a                	sw	a0,16(sp)
    564a:	200c                	lbu	a1,0(s0)
    564c:	4619                	li	a2,6
    564e:	00001517          	auipc	a0,0x1
    5652:	88250513          	addi	a0,a0,-1918 # 5ed0 <__sf_fake_stdout+0x2c>
    5656:	00140913          	addi	s2,s0,1
    565a:	02b10423          	sb	a1,40(sp)
    565e:	2bfd                	jal	5c5c <memchr>
    5660:	c135                	beqz	a0,56c4 <_vfiprintf_r+0x272>
    5662:	ffffb797          	auipc	a5,0xffffb
    5666:	99e78793          	addi	a5,a5,-1634 # 0 <_sinit>
    566a:	e795                	bnez	a5,5696 <_vfiprintf_r+0x244>
    566c:	4742                	lw	a4,16(sp)
    566e:	47b2                	lw	a5,12(sp)
    5670:	10077713          	andi	a4,a4,256
    5674:	cf09                	beqz	a4,568e <_vfiprintf_r+0x23c>
    5676:	0791                	addi	a5,a5,4
    5678:	c63e                	sw	a5,12(sp)
    567a:	5792                	lw	a5,36(sp)
    567c:	97d2                	add	a5,a5,s4
    567e:	d23e                	sw	a5,36(sp)
    5680:	bd2d                	j	54ba <_vfiprintf_r+0x68>
    5682:	036787b3          	mul	a5,a5,s6
    5686:	4685                	li	a3,1
    5688:	842e                	mv	s0,a1
    568a:	97ba                	add	a5,a5,a4
    568c:	b751                	j	5610 <_vfiprintf_r+0x1be>
    568e:	079d                	addi	a5,a5,7
    5690:	9be1                	andi	a5,a5,-8
    5692:	07a1                	addi	a5,a5,8
    5694:	b7d5                	j	5678 <_vfiprintf_r+0x226>
    5696:	0078                	addi	a4,sp,12
    5698:	00000697          	auipc	a3,0x0
    569c:	d7a68693          	addi	a3,a3,-646 # 5412 <__sfputs_r>
    56a0:	8626                	mv	a2,s1
    56a2:	080c                	addi	a1,sp,16
    56a4:	854e                	mv	a0,s3
    56a6:	00000097          	auipc	ra,0x0
    56aa:	000000e7          	jalr	zero # 0 <_sinit>
    56ae:	57fd                	li	a5,-1
    56b0:	8a2a                	mv	s4,a0
    56b2:	fcf514e3          	bne	a0,a5,567a <_vfiprintf_r+0x228>
    56b6:	24de                	lhu	a5,12(s1)
    56b8:	0407f793          	andi	a5,a5,64
    56bc:	ec0792e3          	bnez	a5,5580 <_vfiprintf_r+0x12e>
    56c0:	5512                	lw	a0,36(sp)
    56c2:	b5c1                	j	5582 <_vfiprintf_r+0x130>
    56c4:	0078                	addi	a4,sp,12
    56c6:	00000697          	auipc	a3,0x0
    56ca:	d4c68693          	addi	a3,a3,-692 # 5412 <__sfputs_r>
    56ce:	8626                	mv	a2,s1
    56d0:	080c                	addi	a1,sp,16
    56d2:	854e                	mv	a0,s3
    56d4:	2a01                	jal	57e4 <_printf_i>
    56d6:	bfe1                	j	56ae <_vfiprintf_r+0x25c>

000056d8 <_printf_common>:
    56d8:	7179                	addi	sp,sp,-48
    56da:	ca56                	sw	s5,20(sp)
    56dc:	499c                	lw	a5,16(a1)
    56de:	8aba                	mv	s5,a4
    56e0:	4598                	lw	a4,8(a1)
    56e2:	d422                	sw	s0,40(sp)
    56e4:	d226                	sw	s1,36(sp)
    56e6:	ce4e                	sw	s3,28(sp)
    56e8:	cc52                	sw	s4,24(sp)
    56ea:	d606                	sw	ra,44(sp)
    56ec:	d04a                	sw	s2,32(sp)
    56ee:	c85a                	sw	s6,16(sp)
    56f0:	c65e                	sw	s7,12(sp)
    56f2:	89aa                	mv	s3,a0
    56f4:	842e                	mv	s0,a1
    56f6:	84b2                	mv	s1,a2
    56f8:	8a36                	mv	s4,a3
    56fa:	00e7d363          	bge	a5,a4,5700 <_printf_common+0x28>
    56fe:	87ba                	mv	a5,a4
    5700:	c09c                	sw	a5,0(s1)
    5702:	04344703          	lbu	a4,67(s0)
    5706:	c319                	beqz	a4,570c <_printf_common+0x34>
    5708:	0785                	addi	a5,a5,1
    570a:	c09c                	sw	a5,0(s1)
    570c:	401c                	lw	a5,0(s0)
    570e:	0207f793          	andi	a5,a5,32
    5712:	c781                	beqz	a5,571a <_printf_common+0x42>
    5714:	409c                	lw	a5,0(s1)
    5716:	0789                	addi	a5,a5,2
    5718:	c09c                	sw	a5,0(s1)
    571a:	00042903          	lw	s2,0(s0)
    571e:	00697913          	andi	s2,s2,6
    5722:	00091a63          	bnez	s2,5736 <_printf_common+0x5e>
    5726:	01940b13          	addi	s6,s0,25
    572a:	5bfd                	li	s7,-1
    572c:	445c                	lw	a5,12(s0)
    572e:	4098                	lw	a4,0(s1)
    5730:	8f99                	sub	a5,a5,a4
    5732:	04f94c63          	blt	s2,a5,578a <_printf_common+0xb2>
    5736:	401c                	lw	a5,0(s0)
    5738:	04344683          	lbu	a3,67(s0)
    573c:	0207f793          	andi	a5,a5,32
    5740:	00d036b3          	snez	a3,a3
    5744:	eba5                	bnez	a5,57b4 <_printf_common+0xdc>
    5746:	04340613          	addi	a2,s0,67
    574a:	85d2                	mv	a1,s4
    574c:	854e                	mv	a0,s3
    574e:	9a82                	jalr	s5
    5750:	57fd                	li	a5,-1
    5752:	04f50363          	beq	a0,a5,5798 <_printf_common+0xc0>
    5756:	401c                	lw	a5,0(s0)
    5758:	4611                	li	a2,4
    575a:	4098                	lw	a4,0(s1)
    575c:	8b99                	andi	a5,a5,6
    575e:	4454                	lw	a3,12(s0)
    5760:	4481                	li	s1,0
    5762:	00c79763          	bne	a5,a2,5770 <_printf_common+0x98>
    5766:	40e684b3          	sub	s1,a3,a4
    576a:	0004d363          	bgez	s1,5770 <_printf_common+0x98>
    576e:	4481                	li	s1,0
    5770:	441c                	lw	a5,8(s0)
    5772:	4818                	lw	a4,16(s0)
    5774:	00f75463          	bge	a4,a5,577c <_printf_common+0xa4>
    5778:	8f99                	sub	a5,a5,a4
    577a:	94be                	add	s1,s1,a5
    577c:	4901                	li	s2,0
    577e:	0469                	addi	s0,s0,26
    5780:	5b7d                	li	s6,-1
    5782:	05249863          	bne	s1,s2,57d2 <_printf_common+0xfa>
    5786:	4501                	li	a0,0
    5788:	a809                	j	579a <_printf_common+0xc2>
    578a:	4685                	li	a3,1
    578c:	865a                	mv	a2,s6
    578e:	85d2                	mv	a1,s4
    5790:	854e                	mv	a0,s3
    5792:	9a82                	jalr	s5
    5794:	01751e63          	bne	a0,s7,57b0 <_printf_common+0xd8>
    5798:	557d                	li	a0,-1
    579a:	50b2                	lw	ra,44(sp)
    579c:	5422                	lw	s0,40(sp)
    579e:	5492                	lw	s1,36(sp)
    57a0:	5902                	lw	s2,32(sp)
    57a2:	49f2                	lw	s3,28(sp)
    57a4:	4a62                	lw	s4,24(sp)
    57a6:	4ad2                	lw	s5,20(sp)
    57a8:	4b42                	lw	s6,16(sp)
    57aa:	4bb2                	lw	s7,12(sp)
    57ac:	6145                	addi	sp,sp,48
    57ae:	8082                	ret
    57b0:	0905                	addi	s2,s2,1
    57b2:	bfad                	j	572c <_printf_common+0x54>
    57b4:	00d40733          	add	a4,s0,a3
    57b8:	03000613          	li	a2,48
    57bc:	04c701a3          	sb	a2,67(a4)
    57c0:	04544703          	lbu	a4,69(s0)
    57c4:	00168793          	addi	a5,a3,1
    57c8:	97a2                	add	a5,a5,s0
    57ca:	0689                	addi	a3,a3,2
    57cc:	04e781a3          	sb	a4,67(a5)
    57d0:	bf9d                	j	5746 <_printf_common+0x6e>
    57d2:	4685                	li	a3,1
    57d4:	8622                	mv	a2,s0
    57d6:	85d2                	mv	a1,s4
    57d8:	854e                	mv	a0,s3
    57da:	9a82                	jalr	s5
    57dc:	fb650ee3          	beq	a0,s6,5798 <_printf_common+0xc0>
    57e0:	0905                	addi	s2,s2,1
    57e2:	b745                	j	5782 <_printf_common+0xaa>

000057e4 <_printf_i>:
    57e4:	7179                	addi	sp,sp,-48
    57e6:	d422                	sw	s0,40(sp)
    57e8:	d226                	sw	s1,36(sp)
    57ea:	d04a                	sw	s2,32(sp)
    57ec:	ce4e                	sw	s3,28(sp)
    57ee:	d606                	sw	ra,44(sp)
    57f0:	cc52                	sw	s4,24(sp)
    57f2:	ca56                	sw	s5,20(sp)
    57f4:	c85a                	sw	s6,16(sp)
    57f6:	89b6                	mv	s3,a3
    57f8:	2d94                	lbu	a3,24(a1)
    57fa:	06900793          	li	a5,105
    57fe:	8932                	mv	s2,a2
    5800:	84aa                	mv	s1,a0
    5802:	842e                	mv	s0,a1
    5804:	04358613          	addi	a2,a1,67
    5808:	02f68d63          	beq	a3,a5,5842 <_printf_i+0x5e>
    580c:	06d7e263          	bltu	a5,a3,5870 <_printf_i+0x8c>
    5810:	05800793          	li	a5,88
    5814:	18f68563          	beq	a3,a5,599e <_printf_i+0x1ba>
    5818:	00d7ed63          	bltu	a5,a3,5832 <_printf_i+0x4e>
    581c:	20068d63          	beqz	a3,5a36 <_printf_i+0x252>
    5820:	04300793          	li	a5,67
    5824:	0af68e63          	beq	a3,a5,58e0 <_printf_i+0xfc>
    5828:	04240a93          	addi	s5,s0,66
    582c:	04d40123          	sb	a3,66(s0)
    5830:	a0c9                	j	58f2 <_printf_i+0x10e>
    5832:	06300793          	li	a5,99
    5836:	0af68563          	beq	a3,a5,58e0 <_printf_i+0xfc>
    583a:	06400793          	li	a5,100
    583e:	fef695e3          	bne	a3,a5,5828 <_printf_i+0x44>
    5842:	401c                	lw	a5,0(s0)
    5844:	4308                	lw	a0,0(a4)
    5846:	0807f693          	andi	a3,a5,128
    584a:	00450593          	addi	a1,a0,4
    584e:	c6c5                	beqz	a3,58f6 <_printf_i+0x112>
    5850:	411c                	lw	a5,0(a0)
    5852:	c30c                	sw	a1,0(a4)
    5854:	0007d863          	bgez	a5,5864 <_printf_i+0x80>
    5858:	02d00713          	li	a4,45
    585c:	40f007b3          	neg	a5,a5
    5860:	04e401a3          	sb	a4,67(s0)
    5864:	00000697          	auipc	a3,0x0
    5868:	67468693          	addi	a3,a3,1652 # 5ed8 <__sf_fake_stdout+0x34>
    586c:	4729                	li	a4,10
    586e:	a865                	j	5926 <_printf_i+0x142>
    5870:	07000793          	li	a5,112
    5874:	16f68163          	beq	a3,a5,59d6 <_printf_i+0x1f2>
    5878:	02d7e563          	bltu	a5,a3,58a2 <_printf_i+0xbe>
    587c:	06e00793          	li	a5,110
    5880:	18f68863          	beq	a3,a5,5a10 <_printf_i+0x22c>
    5884:	06f00793          	li	a5,111
    5888:	faf690e3          	bne	a3,a5,5828 <_printf_i+0x44>
    588c:	400c                	lw	a1,0(s0)
    588e:	431c                	lw	a5,0(a4)
    5890:	0805f813          	andi	a6,a1,128
    5894:	00478513          	addi	a0,a5,4
    5898:	06080763          	beqz	a6,5906 <_printf_i+0x122>
    589c:	c308                	sw	a0,0(a4)
    589e:	439c                	lw	a5,0(a5)
    58a0:	a885                	j	5910 <_printf_i+0x12c>
    58a2:	07500793          	li	a5,117
    58a6:	fef683e3          	beq	a3,a5,588c <_printf_i+0xa8>
    58aa:	07800793          	li	a5,120
    58ae:	12f68863          	beq	a3,a5,59de <_printf_i+0x1fa>
    58b2:	07300793          	li	a5,115
    58b6:	f6f699e3          	bne	a3,a5,5828 <_printf_i+0x44>
    58ba:	431c                	lw	a5,0(a4)
    58bc:	41d0                	lw	a2,4(a1)
    58be:	4581                	li	a1,0
    58c0:	00478693          	addi	a3,a5,4
    58c4:	c314                	sw	a3,0(a4)
    58c6:	0007aa83          	lw	s5,0(a5)
    58ca:	8556                	mv	a0,s5
    58cc:	2e41                	jal	5c5c <memchr>
    58ce:	c501                	beqz	a0,58d6 <_printf_i+0xf2>
    58d0:	41550533          	sub	a0,a0,s5
    58d4:	c048                	sw	a0,4(s0)
    58d6:	405c                	lw	a5,4(s0)
    58d8:	c81c                	sw	a5,16(s0)
    58da:	040401a3          	sb	zero,67(s0)
    58de:	a861                	j	5976 <_printf_i+0x192>
    58e0:	431c                	lw	a5,0(a4)
    58e2:	04240a93          	addi	s5,s0,66
    58e6:	00478693          	addi	a3,a5,4
    58ea:	439c                	lw	a5,0(a5)
    58ec:	c314                	sw	a3,0(a4)
    58ee:	04f40123          	sb	a5,66(s0)
    58f2:	4785                	li	a5,1
    58f4:	b7d5                	j	58d8 <_printf_i+0xf4>
    58f6:	0407f693          	andi	a3,a5,64
    58fa:	411c                	lw	a5,0(a0)
    58fc:	c30c                	sw	a1,0(a4)
    58fe:	dab9                	beqz	a3,5854 <_printf_i+0x70>
    5900:	07c2                	slli	a5,a5,0x10
    5902:	87c1                	srai	a5,a5,0x10
    5904:	bf81                	j	5854 <_printf_i+0x70>
    5906:	0405f593          	andi	a1,a1,64
    590a:	c308                	sw	a0,0(a4)
    590c:	d9c9                	beqz	a1,589e <_printf_i+0xba>
    590e:	239e                	lhu	a5,0(a5)
    5910:	06f00713          	li	a4,111
    5914:	0ee68663          	beq	a3,a4,5a00 <_printf_i+0x21c>
    5918:	00000697          	auipc	a3,0x0
    591c:	5c068693          	addi	a3,a3,1472 # 5ed8 <__sf_fake_stdout+0x34>
    5920:	4729                	li	a4,10
    5922:	040401a3          	sb	zero,67(s0)
    5926:	404c                	lw	a1,4(s0)
    5928:	c40c                	sw	a1,8(s0)
    592a:	0005c563          	bltz	a1,5934 <_printf_i+0x150>
    592e:	4008                	lw	a0,0(s0)
    5930:	996d                	andi	a0,a0,-5
    5932:	c008                	sw	a0,0(s0)
    5934:	e399                	bnez	a5,593a <_printf_i+0x156>
    5936:	8ab2                	mv	s5,a2
    5938:	cd89                	beqz	a1,5952 <_printf_i+0x16e>
    593a:	8ab2                	mv	s5,a2
    593c:	02e7f5b3          	remu	a1,a5,a4
    5940:	1afd                	addi	s5,s5,-1
    5942:	95b6                	add	a1,a1,a3
    5944:	218c                	lbu	a1,0(a1)
    5946:	00ba8023          	sb	a1,0(s5)
    594a:	02e7d5b3          	divu	a1,a5,a4
    594e:	0ae7ff63          	bgeu	a5,a4,5a0c <_printf_i+0x228>
    5952:	47a1                	li	a5,8
    5954:	00f71e63          	bne	a4,a5,5970 <_printf_i+0x18c>
    5958:	401c                	lw	a5,0(s0)
    595a:	8b85                	andi	a5,a5,1
    595c:	cb91                	beqz	a5,5970 <_printf_i+0x18c>
    595e:	4058                	lw	a4,4(s0)
    5960:	481c                	lw	a5,16(s0)
    5962:	00e7c763          	blt	a5,a4,5970 <_printf_i+0x18c>
    5966:	03000793          	li	a5,48
    596a:	fefa8fa3          	sb	a5,-1(s5)
    596e:	1afd                	addi	s5,s5,-1
    5970:	41560633          	sub	a2,a2,s5
    5974:	c810                	sw	a2,16(s0)
    5976:	874e                	mv	a4,s3
    5978:	86ca                	mv	a3,s2
    597a:	0070                	addi	a2,sp,12
    597c:	85a2                	mv	a1,s0
    597e:	8526                	mv	a0,s1
    5980:	3ba1                	jal	56d8 <_printf_common>
    5982:	5a7d                	li	s4,-1
    5984:	0b451d63          	bne	a0,s4,5a3e <_printf_i+0x25a>
    5988:	557d                	li	a0,-1
    598a:	50b2                	lw	ra,44(sp)
    598c:	5422                	lw	s0,40(sp)
    598e:	5492                	lw	s1,36(sp)
    5990:	5902                	lw	s2,32(sp)
    5992:	49f2                	lw	s3,28(sp)
    5994:	4a62                	lw	s4,24(sp)
    5996:	4ad2                	lw	s5,20(sp)
    5998:	4b42                	lw	s6,16(sp)
    599a:	6145                	addi	sp,sp,48
    599c:	8082                	ret
    599e:	04d582a3          	sb	a3,69(a1)
    59a2:	00000697          	auipc	a3,0x0
    59a6:	53668693          	addi	a3,a3,1334 # 5ed8 <__sf_fake_stdout+0x34>
    59aa:	400c                	lw	a1,0(s0)
    59ac:	4308                	lw	a0,0(a4)
    59ae:	0805f813          	andi	a6,a1,128
    59b2:	411c                	lw	a5,0(a0)
    59b4:	0511                	addi	a0,a0,4
    59b6:	02080d63          	beqz	a6,59f0 <_printf_i+0x20c>
    59ba:	c308                	sw	a0,0(a4)
    59bc:	0015f713          	andi	a4,a1,1
    59c0:	c701                	beqz	a4,59c8 <_printf_i+0x1e4>
    59c2:	0205e593          	ori	a1,a1,32
    59c6:	c00c                	sw	a1,0(s0)
    59c8:	4741                	li	a4,16
    59ca:	ffa1                	bnez	a5,5922 <_printf_i+0x13e>
    59cc:	400c                	lw	a1,0(s0)
    59ce:	fdf5f593          	andi	a1,a1,-33
    59d2:	c00c                	sw	a1,0(s0)
    59d4:	b7b9                	j	5922 <_printf_i+0x13e>
    59d6:	419c                	lw	a5,0(a1)
    59d8:	0207e793          	ori	a5,a5,32
    59dc:	c19c                	sw	a5,0(a1)
    59de:	07800793          	li	a5,120
    59e2:	04f402a3          	sb	a5,69(s0)
    59e6:	00000697          	auipc	a3,0x0
    59ea:	50668693          	addi	a3,a3,1286 # 5eec <__sf_fake_stdout+0x48>
    59ee:	bf75                	j	59aa <_printf_i+0x1c6>
    59f0:	0405f813          	andi	a6,a1,64
    59f4:	c308                	sw	a0,0(a4)
    59f6:	fc0803e3          	beqz	a6,59bc <_printf_i+0x1d8>
    59fa:	07c2                	slli	a5,a5,0x10
    59fc:	83c1                	srli	a5,a5,0x10
    59fe:	bf7d                	j	59bc <_printf_i+0x1d8>
    5a00:	00000697          	auipc	a3,0x0
    5a04:	4d868693          	addi	a3,a3,1240 # 5ed8 <__sf_fake_stdout+0x34>
    5a08:	4721                	li	a4,8
    5a0a:	bf21                	j	5922 <_printf_i+0x13e>
    5a0c:	87ae                	mv	a5,a1
    5a0e:	b73d                	j	593c <_printf_i+0x158>
    5a10:	4194                	lw	a3,0(a1)
    5a12:	431c                	lw	a5,0(a4)
    5a14:	49cc                	lw	a1,20(a1)
    5a16:	0806f813          	andi	a6,a3,128
    5a1a:	00478513          	addi	a0,a5,4
    5a1e:	00080663          	beqz	a6,5a2a <_printf_i+0x246>
    5a22:	c308                	sw	a0,0(a4)
    5a24:	439c                	lw	a5,0(a5)
    5a26:	c38c                	sw	a1,0(a5)
    5a28:	a039                	j	5a36 <_printf_i+0x252>
    5a2a:	c308                	sw	a0,0(a4)
    5a2c:	0406f693          	andi	a3,a3,64
    5a30:	439c                	lw	a5,0(a5)
    5a32:	daf5                	beqz	a3,5a26 <_printf_i+0x242>
    5a34:	a38e                	sh	a1,0(a5)
    5a36:	00042823          	sw	zero,16(s0)
    5a3a:	8ab2                	mv	s5,a2
    5a3c:	bf2d                	j	5976 <_printf_i+0x192>
    5a3e:	4814                	lw	a3,16(s0)
    5a40:	8656                	mv	a2,s5
    5a42:	85ca                	mv	a1,s2
    5a44:	8526                	mv	a0,s1
    5a46:	9982                	jalr	s3
    5a48:	f54500e3          	beq	a0,s4,5988 <_printf_i+0x1a4>
    5a4c:	401c                	lw	a5,0(s0)
    5a4e:	8b89                	andi	a5,a5,2
    5a50:	e78d                	bnez	a5,5a7a <_printf_i+0x296>
    5a52:	47b2                	lw	a5,12(sp)
    5a54:	4448                	lw	a0,12(s0)
    5a56:	f2f55ae3          	bge	a0,a5,598a <_printf_i+0x1a6>
    5a5a:	853e                	mv	a0,a5
    5a5c:	b73d                	j	598a <_printf_i+0x1a6>
    5a5e:	4685                	li	a3,1
    5a60:	8656                	mv	a2,s5
    5a62:	85ca                	mv	a1,s2
    5a64:	8526                	mv	a0,s1
    5a66:	9982                	jalr	s3
    5a68:	f36500e3          	beq	a0,s6,5988 <_printf_i+0x1a4>
    5a6c:	0a05                	addi	s4,s4,1
    5a6e:	445c                	lw	a5,12(s0)
    5a70:	4732                	lw	a4,12(sp)
    5a72:	8f99                	sub	a5,a5,a4
    5a74:	fefa45e3          	blt	s4,a5,5a5e <_printf_i+0x27a>
    5a78:	bfe9                	j	5a52 <_printf_i+0x26e>
    5a7a:	4a01                	li	s4,0
    5a7c:	01940a93          	addi	s5,s0,25
    5a80:	5b7d                	li	s6,-1
    5a82:	b7f5                	j	5a6e <_printf_i+0x28a>

00005a84 <_sbrk_r>:
    5a84:	1141                	addi	sp,sp,-16
    5a86:	c422                	sw	s0,8(sp)
    5a88:	842a                	mv	s0,a0
    5a8a:	852e                	mv	a0,a1
    5a8c:	1fffc797          	auipc	a5,0x1fffc
    5a90:	4407a623          	sw	zero,1100(a5) # 20001ed8 <errno>
    5a94:	c606                	sw	ra,12(sp)
    5a96:	b02fc0ef          	jal	ra,1d98 <_sbrk>
    5a9a:	57fd                	li	a5,-1
    5a9c:	00f51963          	bne	a0,a5,5aae <_sbrk_r+0x2a>
    5aa0:	1fffc797          	auipc	a5,0x1fffc
    5aa4:	43878793          	addi	a5,a5,1080 # 20001ed8 <errno>
    5aa8:	439c                	lw	a5,0(a5)
    5aaa:	c391                	beqz	a5,5aae <_sbrk_r+0x2a>
    5aac:	c01c                	sw	a5,0(s0)
    5aae:	40b2                	lw	ra,12(sp)
    5ab0:	4422                	lw	s0,8(sp)
    5ab2:	0141                	addi	sp,sp,16
    5ab4:	8082                	ret

00005ab6 <__sread>:
    5ab6:	1141                	addi	sp,sp,-16
    5ab8:	c422                	sw	s0,8(sp)
    5aba:	842e                	mv	s0,a1
    5abc:	00e59583          	lh	a1,14(a1)
    5ac0:	c606                	sw	ra,12(sp)
    5ac2:	2a5d                	jal	5c78 <_read_r>
    5ac4:	00054963          	bltz	a0,5ad6 <__sread+0x20>
    5ac8:	487c                	lw	a5,84(s0)
    5aca:	97aa                	add	a5,a5,a0
    5acc:	c87c                	sw	a5,84(s0)
    5ace:	40b2                	lw	ra,12(sp)
    5ad0:	4422                	lw	s0,8(sp)
    5ad2:	0141                	addi	sp,sp,16
    5ad4:	8082                	ret
    5ad6:	245e                	lhu	a5,12(s0)
    5ad8:	777d                	lui	a4,0xfffff
    5ada:	177d                	addi	a4,a4,-1
    5adc:	8ff9                	and	a5,a5,a4
    5ade:	a45e                	sh	a5,12(s0)
    5ae0:	b7fd                	j	5ace <__sread+0x18>

00005ae2 <__swrite>:
    5ae2:	25de                	lhu	a5,12(a1)
    5ae4:	1101                	addi	sp,sp,-32
    5ae6:	cc22                	sw	s0,24(sp)
    5ae8:	ca26                	sw	s1,20(sp)
    5aea:	c84a                	sw	s2,16(sp)
    5aec:	c64e                	sw	s3,12(sp)
    5aee:	ce06                	sw	ra,28(sp)
    5af0:	1007f793          	andi	a5,a5,256
    5af4:	84aa                	mv	s1,a0
    5af6:	842e                	mv	s0,a1
    5af8:	8932                	mv	s2,a2
    5afa:	89b6                	mv	s3,a3
    5afc:	c791                	beqz	a5,5b08 <__swrite+0x26>
    5afe:	00e59583          	lh	a1,14(a1)
    5b02:	4689                	li	a3,2
    5b04:	4601                	li	a2,0
    5b06:	220d                	jal	5c28 <_lseek_r>
    5b08:	245e                	lhu	a5,12(s0)
    5b0a:	777d                	lui	a4,0xfffff
    5b0c:	177d                	addi	a4,a4,-1
    5b0e:	8ff9                	and	a5,a5,a4
    5b10:	a45e                	sh	a5,12(s0)
    5b12:	00e41583          	lh	a1,14(s0)
    5b16:	4462                	lw	s0,24(sp)
    5b18:	40f2                	lw	ra,28(sp)
    5b1a:	86ce                	mv	a3,s3
    5b1c:	864a                	mv	a2,s2
    5b1e:	49b2                	lw	s3,12(sp)
    5b20:	4942                	lw	s2,16(sp)
    5b22:	8526                	mv	a0,s1
    5b24:	44d2                	lw	s1,20(sp)
    5b26:	6105                	addi	sp,sp,32
    5b28:	a825                	j	5b60 <_write_r>

00005b2a <__sseek>:
    5b2a:	1141                	addi	sp,sp,-16
    5b2c:	c422                	sw	s0,8(sp)
    5b2e:	842e                	mv	s0,a1
    5b30:	00e59583          	lh	a1,14(a1)
    5b34:	c606                	sw	ra,12(sp)
    5b36:	28cd                	jal	5c28 <_lseek_r>
    5b38:	57fd                	li	a5,-1
    5b3a:	245a                	lhu	a4,12(s0)
    5b3c:	00f51a63          	bne	a0,a5,5b50 <__sseek+0x26>
    5b40:	77fd                	lui	a5,0xfffff
    5b42:	17fd                	addi	a5,a5,-1
    5b44:	8ff9                	and	a5,a5,a4
    5b46:	a45e                	sh	a5,12(s0)
    5b48:	40b2                	lw	ra,12(sp)
    5b4a:	4422                	lw	s0,8(sp)
    5b4c:	0141                	addi	sp,sp,16
    5b4e:	8082                	ret
    5b50:	6785                	lui	a5,0x1
    5b52:	8fd9                	or	a5,a5,a4
    5b54:	a45e                	sh	a5,12(s0)
    5b56:	c868                	sw	a0,84(s0)
    5b58:	bfc5                	j	5b48 <__sseek+0x1e>

00005b5a <__sclose>:
    5b5a:	00e59583          	lh	a1,14(a1)
    5b5e:	a825                	j	5b96 <_close_r>

00005b60 <_write_r>:
    5b60:	1141                	addi	sp,sp,-16
    5b62:	c422                	sw	s0,8(sp)
    5b64:	842a                	mv	s0,a0
    5b66:	852e                	mv	a0,a1
    5b68:	85b2                	mv	a1,a2
    5b6a:	8636                	mv	a2,a3
    5b6c:	1fffc797          	auipc	a5,0x1fffc
    5b70:	3607a623          	sw	zero,876(a5) # 20001ed8 <errno>
    5b74:	c606                	sw	ra,12(sp)
    5b76:	9e8fc0ef          	jal	ra,1d5e <_write>
    5b7a:	57fd                	li	a5,-1
    5b7c:	00f51963          	bne	a0,a5,5b8e <_write_r+0x2e>
    5b80:	1fffc797          	auipc	a5,0x1fffc
    5b84:	35878793          	addi	a5,a5,856 # 20001ed8 <errno>
    5b88:	439c                	lw	a5,0(a5)
    5b8a:	c391                	beqz	a5,5b8e <_write_r+0x2e>
    5b8c:	c01c                	sw	a5,0(s0)
    5b8e:	40b2                	lw	ra,12(sp)
    5b90:	4422                	lw	s0,8(sp)
    5b92:	0141                	addi	sp,sp,16
    5b94:	8082                	ret

00005b96 <_close_r>:
    5b96:	1141                	addi	sp,sp,-16
    5b98:	c422                	sw	s0,8(sp)
    5b9a:	842a                	mv	s0,a0
    5b9c:	852e                	mv	a0,a1
    5b9e:	1fffc797          	auipc	a5,0x1fffc
    5ba2:	3207ad23          	sw	zero,826(a5) # 20001ed8 <errno>
    5ba6:	c606                	sw	ra,12(sp)
    5ba8:	2211                	jal	5cac <_close>
    5baa:	57fd                	li	a5,-1
    5bac:	00f51963          	bne	a0,a5,5bbe <_close_r+0x28>
    5bb0:	1fffc797          	auipc	a5,0x1fffc
    5bb4:	32878793          	addi	a5,a5,808 # 20001ed8 <errno>
    5bb8:	439c                	lw	a5,0(a5)
    5bba:	c391                	beqz	a5,5bbe <_close_r+0x28>
    5bbc:	c01c                	sw	a5,0(s0)
    5bbe:	40b2                	lw	ra,12(sp)
    5bc0:	4422                	lw	s0,8(sp)
    5bc2:	0141                	addi	sp,sp,16
    5bc4:	8082                	ret

00005bc6 <_fstat_r>:
    5bc6:	1141                	addi	sp,sp,-16
    5bc8:	c422                	sw	s0,8(sp)
    5bca:	842a                	mv	s0,a0
    5bcc:	852e                	mv	a0,a1
    5bce:	85b2                	mv	a1,a2
    5bd0:	1fffc797          	auipc	a5,0x1fffc
    5bd4:	3007a423          	sw	zero,776(a5) # 20001ed8 <errno>
    5bd8:	c606                	sw	ra,12(sp)
    5bda:	20cd                	jal	5cbc <_fstat>
    5bdc:	57fd                	li	a5,-1
    5bde:	00f51963          	bne	a0,a5,5bf0 <_fstat_r+0x2a>
    5be2:	1fffc797          	auipc	a5,0x1fffc
    5be6:	2f678793          	addi	a5,a5,758 # 20001ed8 <errno>
    5bea:	439c                	lw	a5,0(a5)
    5bec:	c391                	beqz	a5,5bf0 <_fstat_r+0x2a>
    5bee:	c01c                	sw	a5,0(s0)
    5bf0:	40b2                	lw	ra,12(sp)
    5bf2:	4422                	lw	s0,8(sp)
    5bf4:	0141                	addi	sp,sp,16
    5bf6:	8082                	ret

00005bf8 <_isatty_r>:
    5bf8:	1141                	addi	sp,sp,-16
    5bfa:	c422                	sw	s0,8(sp)
    5bfc:	842a                	mv	s0,a0
    5bfe:	852e                	mv	a0,a1
    5c00:	1fffc797          	auipc	a5,0x1fffc
    5c04:	2c07ac23          	sw	zero,728(a5) # 20001ed8 <errno>
    5c08:	c606                	sw	ra,12(sp)
    5c0a:	20c9                	jal	5ccc <_isatty>
    5c0c:	57fd                	li	a5,-1
    5c0e:	00f51963          	bne	a0,a5,5c20 <_isatty_r+0x28>
    5c12:	1fffc797          	auipc	a5,0x1fffc
    5c16:	2c678793          	addi	a5,a5,710 # 20001ed8 <errno>
    5c1a:	439c                	lw	a5,0(a5)
    5c1c:	c391                	beqz	a5,5c20 <_isatty_r+0x28>
    5c1e:	c01c                	sw	a5,0(s0)
    5c20:	40b2                	lw	ra,12(sp)
    5c22:	4422                	lw	s0,8(sp)
    5c24:	0141                	addi	sp,sp,16
    5c26:	8082                	ret

00005c28 <_lseek_r>:
    5c28:	1141                	addi	sp,sp,-16
    5c2a:	c422                	sw	s0,8(sp)
    5c2c:	842a                	mv	s0,a0
    5c2e:	852e                	mv	a0,a1
    5c30:	85b2                	mv	a1,a2
    5c32:	8636                	mv	a2,a3
    5c34:	1fffc797          	auipc	a5,0x1fffc
    5c38:	2a07a223          	sw	zero,676(a5) # 20001ed8 <errno>
    5c3c:	c606                	sw	ra,12(sp)
    5c3e:	2879                	jal	5cdc <_lseek>
    5c40:	57fd                	li	a5,-1
    5c42:	00f51963          	bne	a0,a5,5c54 <_lseek_r+0x2c>
    5c46:	1fffc797          	auipc	a5,0x1fffc
    5c4a:	29278793          	addi	a5,a5,658 # 20001ed8 <errno>
    5c4e:	439c                	lw	a5,0(a5)
    5c50:	c391                	beqz	a5,5c54 <_lseek_r+0x2c>
    5c52:	c01c                	sw	a5,0(s0)
    5c54:	40b2                	lw	ra,12(sp)
    5c56:	4422                	lw	s0,8(sp)
    5c58:	0141                	addi	sp,sp,16
    5c5a:	8082                	ret

00005c5c <memchr>:
    5c5c:	0ff5f593          	andi	a1,a1,255
    5c60:	962a                	add	a2,a2,a0
    5c62:	00c51463          	bne	a0,a2,5c6a <memchr+0xe>
    5c66:	4501                	li	a0,0
    5c68:	8082                	ret
    5c6a:	211c                	lbu	a5,0(a0)
    5c6c:	feb78ee3          	beq	a5,a1,5c68 <memchr+0xc>
    5c70:	0505                	addi	a0,a0,1
    5c72:	bfc5                	j	5c62 <memchr+0x6>

00005c74 <__malloc_lock>:
    5c74:	8082                	ret

00005c76 <__malloc_unlock>:
    5c76:	8082                	ret

00005c78 <_read_r>:
    5c78:	1141                	addi	sp,sp,-16
    5c7a:	c422                	sw	s0,8(sp)
    5c7c:	842a                	mv	s0,a0
    5c7e:	852e                	mv	a0,a1
    5c80:	85b2                	mv	a1,a2
    5c82:	8636                	mv	a2,a3
    5c84:	1fffc797          	auipc	a5,0x1fffc
    5c88:	2407aa23          	sw	zero,596(a5) # 20001ed8 <errno>
    5c8c:	c606                	sw	ra,12(sp)
    5c8e:	28b9                	jal	5cec <_read>
    5c90:	57fd                	li	a5,-1
    5c92:	00f51963          	bne	a0,a5,5ca4 <_read_r+0x2c>
    5c96:	1fffc797          	auipc	a5,0x1fffc
    5c9a:	24278793          	addi	a5,a5,578 # 20001ed8 <errno>
    5c9e:	439c                	lw	a5,0(a5)
    5ca0:	c391                	beqz	a5,5ca4 <_read_r+0x2c>
    5ca2:	c01c                	sw	a5,0(s0)
    5ca4:	40b2                	lw	ra,12(sp)
    5ca6:	4422                	lw	s0,8(sp)
    5ca8:	0141                	addi	sp,sp,16
    5caa:	8082                	ret

00005cac <_close>:
    5cac:	05800793          	li	a5,88
    5cb0:	1fffc717          	auipc	a4,0x1fffc
    5cb4:	22f72423          	sw	a5,552(a4) # 20001ed8 <errno>
    5cb8:	557d                	li	a0,-1
    5cba:	8082                	ret

00005cbc <_fstat>:
    5cbc:	05800793          	li	a5,88
    5cc0:	1fffc717          	auipc	a4,0x1fffc
    5cc4:	20f72c23          	sw	a5,536(a4) # 20001ed8 <errno>
    5cc8:	557d                	li	a0,-1
    5cca:	8082                	ret

00005ccc <_isatty>:
    5ccc:	05800793          	li	a5,88
    5cd0:	1fffc717          	auipc	a4,0x1fffc
    5cd4:	20f72423          	sw	a5,520(a4) # 20001ed8 <errno>
    5cd8:	4501                	li	a0,0
    5cda:	8082                	ret

00005cdc <_lseek>:
    5cdc:	05800793          	li	a5,88
    5ce0:	1fffc717          	auipc	a4,0x1fffc
    5ce4:	1ef72c23          	sw	a5,504(a4) # 20001ed8 <errno>
    5ce8:	557d                	li	a0,-1
    5cea:	8082                	ret

00005cec <_read>:
    5cec:	05800793          	li	a5,88
    5cf0:	1fffc717          	auipc	a4,0x1fffc
    5cf4:	1ef72423          	sw	a5,488(a4) # 20001ed8 <errno>
    5cf8:	557d                	li	a0,-1
    5cfa:	8082                	ret
    5cfc:	202a                	lhu	a0,2(s0)
    5cfe:	0000                	unimp
    5d00:	32334843          	fmadd.d	fa6,ft6,ft3,ft6,rmm
    5d04:	3256                	lhu	a3,36(a2)
    5d06:	7830                	flw	fa2,112(s0)
    5d08:	425f 454c 4c5f      	0x4c5f454c425f
    5d0e:	4249                	li	tp,18
    5d10:	565f 2e31 0031      	0x312e31565f
    5d16:	0000                	unimp
    5d18:	6568                	flw	fa0,76(a0)
    5d1a:	6461                	lui	s0,0x18
    5d1c:	6620                	flw	fs0,72(a2)
    5d1e:	6c69                	lui	s8,0x1a
    5d20:	2065                	jal	5dc8 <__clz_tab+0x64>
    5d22:	7265                	lui	tp,0xffff9
    5d24:	6f72                	flw	ft10,28(sp)
    5d26:	2e72                	lhu	a2,30(a2)
    5d28:	2e2e                	lhu	a1,26(a2)
    5d2a:	0000                	unimp
    5d2c:	494c                	lw	a1,20(a0)
    5d2e:	2042                	lhu	s0,4(s0)
    5d30:	6e69                	lui	t3,0x1a
    5d32:	7469                	lui	s0,0xffffa
    5d34:	6520                	flw	fs0,72(a0)
    5d36:	7272                	flw	ft4,60(sp)
    5d38:	6320726f          	jal	tp,d36a <_data_lma+0x7466>
    5d3c:	3a65646f          	jal	s0,5c0e2 <_data_lma+0x561de>
    5d40:	2520                	lbu	s0,10(a0)
    5d42:	2078                	lbu	a4,6(s0)
    5d44:	2e2e                	lhu	a1,26(a2)
    5d46:	0a2e                	slli	s4,s4,0xb
    5d48:	0000                	unimp
	...

00005d4c <VER_LIB>:
    5d4c:	4843 3233 3256 7830 425f 454c 4c5f 4249     CH32V20x_BLE_LIB
    5d5c:	565f 2e31 3031 0000                         _V1.10..

00005d64 <__clz_tab>:
    5d64:	0100 0202 0303 0303 0404 0404 0404 0404     ................
    5d74:	0505 0505 0505 0505 0505 0505 0505 0505     ................
    5d84:	0606 0606 0606 0606 0606 0606 0606 0606     ................
    5d94:	0606 0606 0606 0606 0606 0606 0606 0606     ................
    5da4:	0707 0707 0707 0707 0707 0707 0707 0707     ................
    5db4:	0707 0707 0707 0707 0707 0707 0707 0707     ................
    5dc4:	0707 0707 0707 0707 0707 0707 0707 0707     ................
    5dd4:	0707 0707 0707 0707 0707 0707 0707 0707     ................
    5de4:	0808 0808 0808 0808 0808 0808 0808 0808     ................
    5df4:	0808 0808 0808 0808 0808 0808 0808 0808     ................
    5e04:	0808 0808 0808 0808 0808 0808 0808 0808     ................
    5e14:	0808 0808 0808 0808 0808 0808 0808 0808     ................
    5e24:	0808 0808 0808 0808 0808 0808 0808 0808     ................
    5e34:	0808 0808 0808 0808 0808 0808 0808 0808     ................
    5e44:	0808 0808 0808 0808 0808 0808 0808 0808     ................
    5e54:	0808 0808 0808 0808 0808 0808 0808 0808     ................

00005e64 <__sf_fake_stderr>:
	...

00005e84 <__sf_fake_stdin>:
	...

00005ea4 <__sf_fake_stdout>:
	...
    5ec4:	2d23 2b30 0020 0000 6c68 004c 6665 4567     #-0+ ...hlL.efgE
    5ed4:	4746 0000 3130 3332 3534 3736 3938 4241     FG..0123456789AB
    5ee4:	4443 4645 0000 0000 3130 3332 3534 3736     CDEF....01234567
    5ef4:	3938 6261 6463 6665 0000 0000               89abcdef....

00005f00 <_global_impure_ptr>:
    5f00:	0010 2000                                   ... 
